>r
D0: 0000a291 D1: 8000ffff D2: 00000034 D3: 00000000 
D4: 00000000 D5: 00000000 D6: ffffffff D7: 00000000 
A0: 0000608a A1: 00000c00 A2: ffffffff A3: 00000b42 
A4: 00bfd000 A5: 00bfe001 A6: 00dff000 A7: 000003f8 
USP=000003f8 ISP=00080000 MSP=00000000 VBR=00000000
T=00 S=0 M=0 X=0 N=1 Z=0 V=0 C=0 IMASK=0
000009f6 4efa 0058                JMP.L (PC,$0058) == $00000a50
next PC: 000009fa

Sync A291

disassemble mem.raw 0 - 0 
00000000  0000 0000       ori.b   #0,d0
00000004  0000 0676       ori.b   #76,d0
00000008  00fc            
0000000a  0818 00fc       btst.b  #4,(a0)+
0000000e  081a 00fc       btst.b  #4,(a2)+
00000012  081c 00fc       btst.b  #4,(a4)+
00000016  081e 00fc       btst.b  #4,(a6)+
0000001a  0820 00fc       btst.b  #4,-(a0)
0000001e  0822 00fc       btst.b  #4,-(a2)
00000022  090e 00fc       movep.w fc(a6),d4
00000026  0826 00fc       btst.b  #4,-(a6)
0000002a  0828 00fc 082a  btst.b  #4,82a(a0)
00000030  00fc            
00000032  082c 00fc 082e  btst.b  #4,82e(a4)
00000038  00fc            
0000003a  0830 00fc 0832  btst.b  #4,32(a0,d0.l*1)
00000040  00fc            
00000042  0834 00fc 0834  btst.b  #4,34(a4,d0.l*1)
00000048  00fc            
0000004a  0834 00fc 0834  btst.b  #4,34(a4,d0.l*1)
00000050  00fc            
00000052  0834 00fc 0834  btst.b  #4,34(a4,d0.l*1)
00000058  00fc            
0000005a  0834 00fc 0834  btst.b  #4,34(a4,d0.l*1)
00000060  00fc            
00000062  0834 00fc 0c8e  btst.b  #4,-72(a4,d0.l*4)
00000068  00fc            
0000006a  0ce2            
0000006c  00fc            
0000006e  0d14            btst.b  d6,(a4)
00000070  00fc            
00000072  0d6c 00fc       bchg.b  d6,fc(a4)
00000076  0dfa 00fc       bset.b  d6,174(pc)
0000007a  0e40            bchg.l  ???
0000007c  00fc            
0000007e  0e86            bclr.l  ???
00000080  00fc            
00000082  0836 00fc 0838  btst.b  #4,38(a6,d0.l*1)
00000088  00fc            
0000008a  083a 00fc 083c  btst.b  #4,8ca(pc)
00000090  00fc            
00000092  083e 00fc       btst.b  #4,???
00000096  0840 00fc       bchg.l  #1c,d0
0000009a  0842 00fc       bchg.l  #1c,d2
0000009e  0844 00fc       bchg.l  #1c,d4
000000a2  0846 00fc       bchg.l  #1c,d6
000000a6  0848 00fc       bchg.b  #4,a0
000000aa  084a 00fc       bchg.b  #4,a2
000000ae  084c 00fc       bchg.b  #4,a4
000000b2  084e 00fc       bchg.b  #4,a6
000000b6  0850 00fc       bchg.b  #4,(a0)
000000ba  0852 00fc       bchg.b  #4,(a2)
000000be  0854 0000       bchg.b  #0,(a4)
000000c2  0000 0000       ori.b   #0,d0
000000c6  .... ....       [78 more]
-------------------------------
000001fe  0000 00fc       ori.b   #fc,d0
00000202  3290            move.w  (a0),(a1)
00000204  0000 0000       ori.b   #0,d0
00000208  .... ....       [3 more]
-------------------------------
00000214  0000 0010       ori.b   #10,d0
00000218  0000 0000       ori.b   #0,d0
0000021c  .... ....       [27 more]
-------------------------------
00000288  4e4f            trap    #f
0000028a  0000 0000       ori.b   #0,d0
0000028e  .... ....       [60 more]
-------------------------------
0000037e  0000 0005       ori.b   #5,d0
00000382  0000 0000       ori.b   #0,d0
00000386  .... ....       [28 more]
-------------------------------
000003f6  0b06            btst.l  d5,d6
000003f8  0000 08d0       ori.b   #d0,d0
000003fc  0000 0822       ori.b   #22,d0
00000400  4ef9 00fc 2f7c  jmp     fc2f7c
00000406  4ef9 00fc 2f80  jmp     fc2f80
0000040c  4ef9 00fc 1a26  jmp     fc1a26
00000412  4ef9 00fc 0a78  jmp     fc0a78
00000418  4ef9 00fc 2f6c  jmp     fc2f6c
0000041e  4ef9 00fc 2f60  jmp     fc2f60
00000424  4ef9 00fc 2f70  jmp     fc2f70
0000042a  4ef9 00fc 2f4a  jmp     fc2f4a
00000430  4ef9 00fc 2ed4  jmp     fc2ed4
00000436  4ef9 00fc 2ea4  jmp     fc2ea4
0000043c  4ef9 00fc 2e40  jmp     fc2e40
00000442  4ef9 00fc 2df0  jmp     fc2df0
00000448  4ef9 00fc 2dd0  jmp     fc2dd0
0000044e  4ef9 00fc 1474  jmp     fc1474
00000454  4ef9 00fc 2dae  jmp     fc2dae
0000045a  4ef9 00fc 2d98  jmp     fc2d98
00000460  4ef9 00fc 1856  jmp     fc1856
00000466  4ef9 00fc 117c  jmp     fc117c
0000046c  4ef9 00fc 2124  jmp     fc2124
00000472  4ef9 00fc 226a  jmp     fc226a
00000478  4ef9 00fc 223e  jmp     fc223e
0000047e  4ef9 00fc 2234  jmp     fc2234
00000484  4ef9 00fc 1c70  jmp     fc1c70
0000048a  4ef9 00fc 1c6c  jmp     fc1c6c
00000490  4ef9 00fc 1c64  jmp     fc1c64
00000496  4ef9 00fc 07a6  jmp     fc07a6
0000049c  4ef9 00fc 072e  jmp     fc072e
000004a2  4ef9 00fc 078a  jmp     fc078a
000004a8  4ef9 00fc 0706  jmp     fc0706
000004ae  4ef9 00fc 0718  jmp     fc0718
000004b4  4ef9 00fc 06f0  jmp     fc06f0
000004ba  4ef9 00fc 06a2  jmp     fc06a2
000004c0  4ef9 00fc 069e  jmp     fc069e
000004c6  4ef9 00fc 0690  jmp     fc0690
000004cc  4ef9 00fc 14d4  jmp     fc14d4
000004d2  4ef9 00fc 14b6  jmp     fc14b6
000004d8  4ef9 00fc 14a2  jmp     fc14a2
000004de  4ef9 00fc 146c  jmp     fc146c
000004e4  4ef9 00fc 1456  jmp     fc1456
000004ea  4ef9 00fc 1448  jmp     fc1448
000004f0  4ef9 00fc 1c5a  jmp     fc1c5a
000004f6  4ef9 00fc 1c32  jmp     fc1c32
000004fc  4ef9 00fc 1c18  jmp     fc1c18
00000502  4ef9 00fc 1bea  jmp     fc1bea
00000508  4ef9 00fc 1b70  jmp     fc1b70
0000050e  4ef9 00fc 1b6c  jmp     fc1b6c
00000514  4ef9 00fc 1b54  jmp     fc1b54
0000051a  4ef9 00fc 1ff0  jmp     fc1ff0
00000520  4ef9 00fc 1fca  jmp     fc1fca
00000526  4ef9 00fc 2038  jmp     fc2038
0000052c  4ef9 00fc 2000  jmp     fc2000
00000532  4ef9 00fc 1e84  jmp     fc1e84
00000538  4ef9 00fc 1f0c  jmp     fc1f0c
0000053e  4ef9 00fc 1e54  jmp     fc1e54
00000544  4ef9 00fc 1e5e  jmp     fc1e5e
0000054a  4ef9 00fc 1e04  jmp     fc1e04
00000550  4ef9 00fc 1db0  jmp     fc1db0
00000556  4ef9 00fc 1d30  jmp     fc1d30
0000055c  4ef9 00fc 1c84  jmp     fc1c84
00000562  4ef9 00fc 1696  jmp     fc1696
00000568  4ef9 00fc 1670  jmp     fc1670
0000056e  4ef9 00fc 165a  jmp     fc165a
00000574  4ef9 00fc 164a  jmp     fc164a
0000057a  4ef9 00fc 163c  jmp     fc163c
00000580  4ef9 00fc 1624  jmp     fc1624
00000586  4ef9 00fc 1614  jmp     fc1614
0000058c  4ef9 00fc 15e8  jmp     fc15e8
00000592  4ef9 00fc 19e8  jmp     fc19e8
00000598  4ef9 00fc 195a  jmp     fc195a
0000059e  4ef9 00fc 190c  jmp     fc190c
000005a4  4ef9 00fc 182c  jmp     fc182c
000005aa  4ef9 00fc 187c  jmp     fc187c
000005b0  4ef9 00fc 17d0  jmp     fc17d0
000005b6  4ef9 00fc 1740  jmp     fc1740
000005bc  4ef9 00fc 16d8  jmp     fc16d8
000005c2  4ef9 00fc 135c  jmp     fc135c
000005c8  4ef9 00fc 1250  jmp     fc1250
000005ce  4ef9 00fc 1210  jmp     fc1210
000005d4  4ef9 00fc 11ca  jmp     fc11ca
000005da  4ef9 00fc 11b0  jmp     fc11b0
000005e0  4ef9 00fc 1184  jmp     fc1184
000005e6  4ef9 00fc 115e  jmp     fc115e
000005ec  4ef9 00fc 1f9c  jmp     fc1f9c
000005f2  4ef9 00fc 1f96  jmp     fc1f96
000005f8  4ef9 00fc 1436  jmp     fc1436
000005fe  4ef9 00fc 1428  jmp     fc1428
00000604  4ef9 00fc 236a  jmp     fc236a
0000060a  4ef9 00fc 3012  jmp     fc3012
00000610  4ef9 00fc 0b64  jmp     fc0b64
00000616  4ef9 00fc 0afc  jmp     fc0afc
0000061c  4ef9 00fc 15b2  jmp     fc15b2
00000622  4ef9 00fc 1528  jmp     fc1528
00000628  4ef9 00fc 0c04  jmp     fc0c04
0000062e  4ef9 00fc 0b2c  jmp     fc0b2c
00000634  4ef9 00fc 100a  jmp     fc100a
0000063a  4ef9 00fc 0f66  jmp     fc0f66
00000640  4ef9 00fc 0f1c  jmp     fc0f1c
00000646  4ef9 00fc 1f74  jmp     fc1f74
0000064c  4ef9 00fc 0ec2  jmp     fc0ec2
00000652  4ef9 00fc 0e9c  jmp     fc0e9c
00000658  4ef9 00fc 08e6  jmp     fc08e6
0000065e  4ef9 00fc 2328  jmp     fc2328
00000664  4ef9 00fc 2328  jmp     fc2328
0000066a  4ef9 00fc 2324  jmp     fc2324
00000670  4ef9 00fc 231c  jmp     fc231c
00000676  0000 1d16       ori.b   #16,d0
0000067a  0000 07f0       ori.b   #f0,d0
0000067e  0900            btst.l  d4,d0
00000680  00fc            
00000682  00a8 0400 0276  ori.l   #4000276,24c(a0)
00000688  024c 
0000068a  0022 0002       ori.b   #2,-(a2)
0000068e  00fc            
00000690  0018 5ef3       ori.b   #f3,(a0)+
00000694  0000 0002       ori.b   #2,d0
00000698  0000 0000       ori.b   #0,d0
0000069c  ffff            f-line
0000069e  f989            f-line
000006a0  0000 0000       ori.b   #0,d0
000006a4  .... ....       [2 more]
-------------------------------
000006ac  0008 0000       ori.b   #0,a0
000006b0  0007 e800       ori.b   #0,d7
000006b4  0008 0000       ori.b   #0,a0
000006b8  00fc            
000006ba  237e            move.l  ???
000006bc  0000 0000       ori.b   #0,d0
000006c0  .... ....       [2 more]
-------------------------------
000006c8  f9e6            f-line
000006ca  0000 0000       ori.b   #0,d0
000006ce  .... ....       [2 more]
-------------------------------
000006d6  0000 1efe       ori.b   #fe,d0
000006da  00fc            
000006dc  4ae8 0000       tas.b   0(a0)
000006e0  1f4c 0000       move.b  a4,0(sp)
000006e4  0000 00fc       ori.b   #fc,d0
000006e8  13bc 0000 0000  move.b  #0,0(a1,d0.w*1)
000006ee  0000 08e8       ori.b   #e8,d0
000006f2  00fc            
000006f4  1338 0000       move.b  0,-(a1)
000006f8  0000 0000       ori.b   #0,d0
000006fc  0914            btst.b  d4,(a4)
000006fe  00fc            
00000700  1338 0000       move.b  0,-(a1)
00000704  0000 0000       ori.b   #0,d0
00000708  08fe 00fc       bset.b  #4,???
0000070c  1338 0000       move.b  0,-(a1)
00000710  0000 0000       ori.b   #0,d0
00000714  221e            move.l  (a6)+,d1
00000716  00fc            
00000718  6dfa            blt.b   0714
0000071a  0000 2294       ori.b   #94,d0
0000071e  0000 3116       ori.b   #16,d0
00000722  00fc            
00000724  35e4 0000       move.w  -(a4),726(pc)
00000728  3148 0000       move.w  a0,0(a0)
0000072c  3182 00fc       move.w  d2,-4(a0,d0.w*1)
00000730  35e4 0000       move.w  -(a4),732(pc)
00000734  0030 0000 31ee  move.w  0(a4,d0.w*1),???[68020+]
0000073a  00fc            
0000073c  35e4 0000       move.w  -(a4),73e(pc)
00000740  3220            move.w  -(a0),d1
00000742  0000 325a       ori.b   #5a,d0
00000746  00fc            
00000748  35e4 0000       move.w  -(a4),74a(pc)
0000074c  328c            move.w  a4,(a1)
0000074e  0000 0000       ori.b   #0,d0
00000752  .... ....       [2 more]
-------------------------------
0000075a  0000 1efe       ori.b   #fe,d0
0000075e  00fc            
00000760  4b00            chk.l   d0,d5
00000762  0000 1f62       ori.b   #62,d0
00000766  0000 092a       ori.b   #2a,d0
0000076a  00fc            
0000076c  1338 0000       move.b  0,-(a1)
00000770  0000 0000       ori.b   #0,d0
00000774  .... ....       [3 more]
-------------------------------
00000780  0940            bchg.l  d4,d0
00000782  00fc            
00000784  1338 0000       move.b  0,-(a1)
00000788  0000 0000       ori.b   #0,d0
0000078c  1970 0000 006a  move.b  0(a0,d0.w*1),6a(a4)
00000792  0000 0034       ori.b   #34,d0
00000796  0010 0010       ori.b   #10,(a0)
0000079a  8000            or.b    d0,d0
0000079c  ffff            f-line
0000079e  0000 0000       ori.b   #0,d0
000007a2  0000 1c18       ori.b   #18,d0
000007a6  00fc            
000007a8  003f 00fc       move.l  -4(a0,d0.w*1),???
000007ac  003f 00fc       move.l  -4(a0,d0.w*1),???
000007b0  1d28 0000       move.b  0(a0),-(a6)
000007b4  ffff            f-line
000007b6  8000            or.b    d0,d0
000007b8  0000 08c2       ori.b   #c2,d0
000007bc  0000 0000       ori.b   #0,d0
000007c0  0000 08c2       ori.b   #c2,d0
000007c4  0a00 0000       eori.b  #0,d0
000007c8  19ea 0000 0000  move.b  0(a2),#0
000007ce  0000 1ba4       ori.b   #a4,d0
000007d2  0800 0000       btst.l  #0,d0
000007d6  2c8c            move.l  a4,(a6)
000007d8  0000 0000       ori.b   #0,d0
000007dc  0000 4704       ori.b   #4,d0
000007e0  0300            btst.l  d1,d0
000007e2  0000 07e6       ori.b   #e6,d0
000007e6  0000 0000       ori.b   #0,d0
000007ea  0000 07e2       ori.b   #e2,d0
000007ee  0200 0000       andi.b  #0,d0
000007f2  0676 0000 0000  addi.w  #0,0(a6,d0.w*1)
000007f8  0000 5bf6       ori.b   #f6,d0
000007fc  0900            btst.l  d4,d0
000007fe  0000 3d7c       ori.b   #7c,d0
00000802  0000 0180       ori.b   #80,d0
00000806  3d7c 8210 0096  move.w  #8210,96(a6)
0000080c  4eba 0064       jsr     872(pc)
00000810  4eba 008a       jsr     89c(pc)
00000814  662a            bne.b   0840
00000816  4eba 024a       jsr     a62(pc)
0000081a  4eba 0246       jsr     a62(pc)
0000081e  4eba 009a       jsr     8ba(pc)
00000822  6bfe            bmi.b   0822
00000824  41f9 0007 8006  lea.l   78006,a0
0000082a  43f9 0006 8000  lea.l   68000,a1
00000830  303c 05db       move.w  #5db,d0
00000834  22d8            move.l  (a0)+,(a1)+
00000836  51c8 fffc       dbf.w   d0,0834
0000083a  4ef9 0006 8000  jmp     68000
00000840  4eba 0220       jsr     a62(pc)
00000844  4eba 021c       jsr     a62(pc)
00000848  3d7c 000f 0180  move.w  #f,180(a6)
0000084e  4eba 006a       jsr     8ba(pc)
00000852  6a08            bpl.b   085c
00000854  3d7c 0f00 0180  move.w  #f00,180(a6)
0000085a  60f8            bra.b   0854
0000085c  4eba 0204       jsr     a62(pc)
00000860  303a 02e0       move.w  b42(pc),d0
00000864  b07c 009e       cmp.w   #9e,d0
00000868  66de            bne.b   0848
0000086a  4eba 0242       jsr     aae(pc)
0000086e  6000 ffa6       bra.w   0816
00000872  3d7c 4000 0024  move.w  #4000,24(a6)
00000878  3d40 007e       move.w  d0,7e(a6)
0000087c  3d7c 7f00 009e  move.w  #7f00,9e(a6)
00000882  3d7c 9d00 009e  move.w  #9d00,9e(a6)
00000888  197c 00ff 0300  move.b  #ff,300(a4)
0000088e  1b7c 0003 0200  move.b  #3,200(a5)
00000894  4eba 0258       jsr     aee(pc)
00000898  4efa 0214       jmp     aae(pc)
0000089c  302e 0012       move.w  12(a6),d0
000008a0  323c 0032       move.w  #32,d1
000008a4  5242            addq.w  #1,d2
000008a6  b06e 0012       cmp.w   12(a6),d0
000008aa  6608            bne.b   08b4
000008ac  51c9 fff6       dbf.w   d1,08a4
000008b0  4240            clr.w   d0
000008b2  4e75            rts
000008b4  303c ffff       move.w  #ffff,d0
000008b8  4e75            rts

000008ba  4df9 00df f000  lea.l   dff000,a6
000008c0  33fc 0005 0000  move.w  #5,380
000008c6  0380 
000008c8  303c a291       move.w  #a291,d0
000008cc  4eba 00f8       jsr     9c6(pc)
000008d0  41f9 0007 8fa0  lea.l   78fa0,a0
000008d6  43f9 0007 0000  lea.l   70000,a1
000008dc  303c 07d5       move.w  #7d5,d0
000008e0  4eba 023c       jsr     b1e(pc) # nr=0x7d6=2006
000008e4  41f9 0007 8fa0  lea.l   78fa0,a0
000008ea  323c 0002       move.w  #2,d1
000008ee  4eba 010a       jsr     9fa(pc)
000008f2  4a41            tst.w   d1
000008f4  6b20            bmi.b   0916
000008f6  5379 0000 0380  subq.w  #1,380
000008fc  6b00 00c4       bmi.w   09c2
00000900  b27c 0001       cmp.w   #1,d1
00000904  660a            bne.b   0910
00000906  0c79 0003 0000  cmpi.w  #3,380
0000090c  0380 
0000090e  6eb8            bgt.b   08c8
00000910  4eba 0126       jsr     a38(pc)
00000914  60b2            bra.b   08c8
00000916  33fc 0005 0000  move.w  #5,380
0000091c  0380 
0000091e  303c 8a91       move.w  #8a91,d0
00000922  4eba 00a2       jsr     9c6(pc)
00000926  41f9 0007 87d0  lea.l   787d0,a0
0000092c  43f9 0007 0000  lea.l   70000,a1
00000932  303c 07d5       move.w  #7d5,d0
00000936  4eba 01e6       jsr     b1e(pc) # nr = 0x7d6=2006
0000093a  41f9 0007 87d0  lea.l   787d0,a0
00000940  323c 0001       move.w  #1,d1
00000944  4eba 00b4       jsr     9fa(pc)
00000948  4a41            tst.w   d1
0000094a  6b1e            bmi.b   096a
0000094c  5379 0000 0380  subq.w  #1,380
00000952  6b6e            bmi.b   09c2
00000954  b27c 0001       cmp.w   #1,d1
00000958  660a            bne.b   0964
0000095a  0c79 0003 0000  cmpi.w  #3,380
00000960  0380 
00000962  6eba            bgt.b   091e
00000964  4eba 00d2       jsr     a38(pc)
00000968  60b4            bra.b   091e
0000096a  33fc 0005 0000  move.w  #5,380
00000970  0380 
00000972  303c a245       move.w  #a245,d0
00000976  4eba 004e       jsr     9c6(pc)
0000097a  41f9 0007 8000  lea.l   78000,a0
00000980  43f9 0007 0000  lea.l   70000,a1
00000986  303c 07d5       move.w  #7d5,d0
0000098a  4eba 0192       jsr     b1e(pc) # nr = 0x7d6 = 2006
0000098e  41f9 0007 8000  lea.l   78000,a0
00000994  323c 0000       move.w  #0,d1
00000998  4eba 0060       jsr     9fa(pc)
0000099c  4a41            tst.w   d1
0000099e  6b1e            bmi.b   09be
000009a0  5379 0000 0380  subq.w  #1,380
000009a6  6b1a            bmi.b   09c2
000009a8  b27c 0001       cmp.w   #1,d1
000009ac  660a            bne.b   09b8
000009ae  0c79 0003 0000  cmpi.w  #3,380
000009b4  0380 
000009b6  6eba            bgt.b   0972
000009b8  4eba 007e       jsr     a38(pc)
000009bc  60b4            bra.b   0972
000009be  4240            clr.w   d0
000009c0  4e75            rts
000009c2  70ff            moveq   #-1,d0
000009c4  4e75            rts


# do_disk_dma
000009c6  3d7c 0002 009c  move.w  #2,intreq(a6)
000009cc  2d7c 0007 0000  move.l  #70000,dskpt(a6)
000009d2  0020 
000009d4  3d40 007e       move.w  d0,dsksync(a6)
000009d8  3d7c 7f00 009e  move.w  #7f00,adkcon(a6)
000009de  3d7c 9d00 009e  move.w  #9d00,adkcon(a6)
000009e4  3d7c 4000 0024  move.w  #4000,dsklen(a6)
000009ea  3d7c 87d8 0024  move.w  #87d8,dsklen(a6)
000009f0  3d7c 87d8 0024  move.w  #87d8,dsklen(a6)
000009f6  4efa 0058       jmp     a50(pc)               # wait_disk_dma


000009fa  0c28 00ff 0001  cmpi.b  #ff,1(a0)
00000a00  662a            bne.b   0a2c
00000a02  303a 013e       move.w  b42(pc),d0
00000a06  b028 0002       cmp.b   2(a0),d0
00000a0a  6624            bne.b   0a30
00000a0c  b228 0003       cmp.b   3(a0),d1
00000a10  661e            bne.b   0a30
00000a12  2248            movea.l a0,a1
00000a14  41e9 0006       lea.l   6(a1),a0
00000a18  303c 03e7       move.w  #3e7,d0
00000a1c  4eba 011a       jsr     b38(pc)
00000a20  2049            movea.l a1,a0
00000a22  b268 0004       cmp.w   4(a0),d1
00000a26  660c            bne.b   0a34
00000a28  72ff            moveq   #-1,d1
00000a2a  4e75            rts
00000a2c  7201            moveq   #1,d1
00000a2e  4e75            rts
00000a30  7202            moveq   #2,d1
00000a32  4e75            rts
00000a34  7203            moveq   #3,d1
00000a36  4e75            rts
00000a38  4bfa 010a       lea.l   b44(pc),a5
00000a3c  3aba 0104       move.w  b42(pc),(a5)
00000a40  4eba 006c       jsr     aae(pc)
00000a44  3015            move.w  (a5),d0
00000a46  4eba 001a       jsr     a62(pc)
00000a4a  51c8 fffa       dbf.w   d0,0a46
00000a4e  4e75            rts


# wait_disk_dma
00000a50  302e 001e       move.w  intreqr(a6),d0
00000a54  0240 0002       andi.w  #2,d0
00000a58  67f6            beq.b   0a50
00000a5a  3d7c 0002 009c  move.w  #2,intreq(a6)
00000a60  4e75            rts


00000a62  47fa 00de       lea.l   b42(pc),a3
00000a66  08ac 0001 0100  bclr.b  #1,100(a4)
00000a6c  3013            move.w  (a3),d0
00000a6e  5240            addq.w  #1,d0
00000a70  0c40 00a0       cmpi.w  #a0,d0
00000a74  6736            beq.b   0aac
00000a76  3680            move.w  d0,(a3)
00000a78  08ac 0002 0100  bclr.b  #2,100(a4)
00000a7e  e248            lsr.w   #1,d0
00000a80  6408            bcc.b   0a8a
00000a82  08ec 0002 0100  bset.b  #2,100(a4)
00000a88  6022            bra.b   0aac
00000a8a  08ec 0000 0100  bset.b  #0,100(a4)
00000a90  08ac 0000 0100  bclr.b  #0,100(a4)
00000a96  4e71            nop
00000a98  4e71            nop
00000a9a  4e71            nop
00000a9c  4e71            nop
00000a9e  08ec 0000 0100  bset.b  #0,100(a4)
00000aa4  303c 1f40       move.w  #1f40,d0
00000aa8  51c8 fffe       dbf.w   d0,0aa8
00000aac  4e75            rts
00000aae  08ec 0001 0100  bset.b  #1,100(a4)
00000ab4  082d 0004 0000  btst.b  #4,0(a5)
00000aba  6724            beq.b   0ae0
00000abc  08ec 0000 0100  bset.b  #0,100(a4)
00000ac2  08ac 0000 0100  bclr.b  #0,100(a4)
00000ac8  4e71            nop
00000aca  4e71            nop
00000acc  4e71            nop
00000ace  4e71            nop
00000ad0  08ec 0000 0100  bset.b  #0,100(a4)
00000ad6  303c 1f40       move.w  #1f40,d0
00000ada  51c8 fffe       dbf.w   d0,0ada
00000ade  60d4            bra.b   0ab4
00000ae0  47fa 0060       lea.l   b42(pc),a3
00000ae4  4253            clr.w   (a3)
00000ae6  08ac 0002 0100  bclr.b  #2,100(a4)
00000aec  4e75            rts
00000aee  08ec 0003 0100  bset.b  #3,100(a4)
00000af4  08ac 0007 0100  bclr.b  #7,100(a4)
00000afa  08ac 0003 0100  bclr.b  #3,100(a4)
00000b00  7004            moveq   #4,d0
00000b02  4eba 0008       jsr     b0c(pc)
00000b06  51c8 fffa       dbf.w   d0,0b02
00000b0a  4e75            rts
00000b0c  082c 0004 0d00  btst.b  #4,d00(a4)
00000b12  66f8            bne.b   0b0c
00000b14  082c 0004 0d00  btst.b  #4,d00(a4)
00000b1a  67f8            beq.b   0b14
00000b1c  4e75            rts

# decode_mfm(d0=nr_bytes-1)
00000b1e  7200            moveq   #0,d1
00000b20  7407            moveq   #7,d2    # 8 bits
00000b22  3619            move.w  (a1)+,d3 # Get an MFM word
00000b24  e34b            lsl.w   #1,d3
00000b26  e38b            lsl.l   #1,d3
00000b28  51ca fffa       dbf.w   d2,0b24
00000b2c  4843            swap    d3
00000b2e  10c3            move.b  d3,(a0)+ # copy the byte to dest
00000b30  51c8 ffec       dbf.w   d0,0b1e
00000b34  4e75            rts
00000b36  0001

# checksum(d0=nr_words-1)
00000b38  7200            moveq   #0,d1
00000b3a  d258            add.w   (a0)+,d1
00000b3c  51c8 fffc       dbf.w   d0,0b3a
00000b40  4e75            rts

00000b42  0002 0000       ori.b   #0,d2
00000b46  0000 03ec       ori.b   #ec,d0
00000b4a  0000 0009       ori.b   #9,d0
00000b4e  0000 0000       ori.b   #0,d0
00000b52  0000 010e       ori.b   #e,d0
00000b56  0000 0142       ori.b   #42,d0
00000b5a  0000 0154       ori.b   #54,d0
00000b5e  0000 0164       ori.b   #64,d0
00000b62  0000 0198       ori.b   #98,d0
00000b66  0000 01a8       ori.b   #a8,d0
00000b6a  0000 01b8       ori.b   #b8,d0
00000b6e  0000 01ec       ori.b   #ec,d0
00000b72  0000 01fc       ori.b   #fc,d0
00000b76  0000 0000       ori.b   #0,d0
00000b7a  0000 03f2       ori.b   #f2,d0
00000b7e  0000 0000       ori.b   #0,d0
00000b82  .... ....       [791 more]
-------------------------------
000017de  00fc            
000017e0  08f4 0000 0000  bset.b  #0,0(a4,d0.w*1)
000017e6  3342 0000       move.w  d2,0(a1)
000017ea  0000 0000       ori.b   #0,d0
000017ee  .... ....       [2 more]
-------------------------------
000017f6  0002 0000       ori.b   #0,d2
000017fa  0008 00fd       ori.b   #fd,a0
000017fe  3db6 0000 0000  move.w  0(a6,d0.w*1),0(a6,d0.w*1)
00001804  0000 185c       ori.b   #5c,d0
00001808  0000 1970       ori.b   #70,d0
0000180c  0000 0002       ori.b   #2,d0
00001810  2b3f            move.l  ???
00001812  3b01            move.w  d1,-(a5)
00001814  00fc            
00001816  ed54            roxl.w  #6,d4
00001818  0000 1bf8       ori.b   #f8,d0
0000181c  0000 0002       ori.b   #2,d0
00001820  0000 1bf8       ori.b   #f8,d0
00001824  0000 0000       ori.b   #0,d0
00001828  00fc            
0000182a  eed8            ???
0000182c  0000 0000       ori.b   #0,d0
00001830  0000 1bf8       ori.b   #f8,d0
00001834  ffff            f-line
00001836  fffe            f-line
00001838  ffff            f-line
0000183a  ffff            f-line
0000183c  0000 0002       ori.b   #2,d0
00001840  0000 0008       ori.b   #8,d0
00001844  00fd            
00001846  3db6 0000 0000  move.w  0(a6,d0.w*1),0(a6,d0.w*1)
0000184c  4004            negx.b  d4
0000184e  0000 08c2       ori.b   #c2,d0
00001852  0000 60e8       ori.b   #e8,d0
00001856  00fc            
00001858  1826            move.b  -(a6),d4
0000185a  0000 0002       ori.b   #2,d0
0000185e  0000 00fe       ori.b   #fe,d0
00001862  9c6c 00fc       sub.w   fc(a4),d6
00001866  08f4 0000 0000  bset.b  #0,0(a4,d0.w*1)
0000186c  621e            bhi.b   188c
0000186e  0000 0000       ori.b   #0,d0
00001872  0000 0001       ori.b   #1,d0
00001876  0000 0000       ori.b   #0,d0
0000187a  .... ....       [2 more]
-------------------------------
00001882  ffff            f-line
00001884  ffff            f-line
00001886  0000 0000       ori.b   #0,d0
0000188a  0000 18b6       ori.b   #b6,d0
0000188e  0000 1970       ori.b   #70,d0
00001892  0000 18e2       ori.b   #e2,d0
00001896  00fe            
00001898  86ee 0000       divu.w  0(a6),d3
0000189c  5c40            addq.w  #6,d0
0000189e  0000 0640       ori.b   #40,d0
000018a2  0000 0676       ori.b   #76,d0
000018a6  00fc            
000018a8  1f4c 00fc       move.b  a4,fc(sp)
000018ac  075e            bchg.b  d3,(a6)+
000018ae  ffff            f-line
000018b0  ffff            f-line
000018b2  00fe            
000018b4  85ca            divs.w  a2,d2
000018b6  0000 0676       ori.b   #76,d0
000018ba  0000 0000       ori.b   #0,d0
000018be  0000 00fd       ori.b   #fd,d0
000018c2  b608            cmp.b   a0,d3
000018c4  00fc            
000018c6  1498            move.b  (a0)+,(a2)
000018c8  00fc            
000018ca  149e            move.b  (a6)+,(a2)
000018cc  00fc            
000018ce  14ae 00fc       move.b  bpl8ptl(a6),(a2)
000018d2  14b4 00fe       move.b  -2(a4,d0.w*1),(a2)
000018d6  b444            cmp.w   d4,d2
000018d8  0000 5bf6       ori.b   #f6,d0
000018dc  00fe            
000018de  b2c2            cmpa.w  d2,a1
000018e0  0000 0000       ori.b   #0,d0
000018e4  192a 0000       move.b  0(a2),-(a4)
000018e8  1926            move.b  -(a6),-(a4)
000018ea  0700            btst.l  d3,d0
000018ec  00fe            
000018ee  83fa 0000       divs.w  18f0(pc),d1
000018f2  1912            move.b  (a2),-(a4)
000018f4  0000 0000       ori.b   #0,d0
000018f8  4704            chk.l   d4,d3
000018fa  0000 60f0       ori.b   #f0,d0
000018fe  0002 0000       ori.b   #0,d2
00001902  0000 0400       ori.b   #0,d0
00001906  0000 0400       ori.b   #0,d0
0000190a  0000 5c40       ori.b   #40,d0
0000190e  0000 0000       ori.b   #0,d0
00001912  0000 ffff       ori.b   #ff,d0
00001916  ffff            f-line
00001918  0000 0000       ori.b   #0,d0
0000191c  00fe            
0000191e  83fa 001f       divs.w  193f(pc),d1
00001922  0000 1970       ori.b   #70,d0
00001926  0000 192a       ori.b   #2a,d0
0000192a  0000 0000       ori.b   #0,d0
0000192e  0000 1926       ori.b   #26,d0
00001932  1454            ???
00001934  00fc            
00001936  0240 ffff       andi.w  #ffff,d0
0000193a  ff01            f-line
0000193c  0000 0000       ori.b   #0,d0
00001940  0000 1c78       ori.b   #78,d0
00001944  0000 0000       ori.b   #0,d0
00001948  .... ....       [1 more]
-------------------------------
0000194c  00fc            
0000194e  0240 00fc       andi.w  #fc,d0
00001952  0b76 00fc       bchg.b  d5,-4(a6,d0.w*1)
00001956  0b5c            bchg.b  d5,(a4)+
00001958  ffff            f-line
0000195a  fff6            f-line
0000195c  0000 0000       ori.b   #0,d0
00001960  .... ....       [1 more]
-------------------------------
00001964  00fc            
00001966  0526            btst.b  d2,-(a6)
00001968  0000 0000       ori.b   #0,d0
0000196c  .... ....       [1 more]
-------------------------------
00001970  0000 0810       ori.b   #10,d0
00001974  0000 080c       ori.b   #c,d0
00001978  0000 00fc       ori.b   #fc,d0
0000197c  00a8 0002 01ff  ori.l   #201ff,-8000(a0)
00001982  8000 
00001984  ffff            f-line
00001986  8000            or.b    d0,d0
00001988  0000 0000       ori.b   #0,d0
0000198c  .... ....       [1 more]
-------------------------------
00001990  0000 8000       ori.b   #0,d0
00001994  0000 0000       ori.b   #0,d0
00001998  0000 00fc       ori.b   #fc,d0
0000199c  003f 0000       move.l  0(a0,d0.w*1),???
000019a0  0000 00fc       ori.b   #fc,d0
000019a4  003f 0000       move.l  0(a0,d0.w*1),???
000019a8  1864            ???
000019aa  0000 0968       ori.b   #68,d0
000019ae  0000 1968       ori.b   #68,d0
000019b2  0000 0000       ori.b   #0,d0
000019b6  .... ....       [1 more]
-------------------------------
000019ba  0000 0958       ori.b   #58,d0
000019be  0000 0000       ori.b   #0,d0
000019c2  0000 0958       ori.b   #58,d0
000019c6  0000 0000       ori.b   #0,d0
000019ca  .... ....       [3 more]
-------------------------------
000019d6  0000 4ef9       ori.b   #f9,d0
000019da  00fe            
000019dc  44f2 4ef9       move.w  -7(a2,d4.l*8),ccr
000019e0  00fe            
000019e2  44dc            move.w  (a4)+,ccr
000019e4  4ef9 00fe 4472  jmp     fe4472
000019ea  0000 1a18       ori.b   #18,d0
000019ee  0000 07c6       ori.b   #c6,d0
000019f2  0800 00fe       btst.l  #1e,d0
000019f6  43f6 0600       lea.l   0(a6,d0.w*8),a1
000019fa  0012 0029       ori.b   #29,(a2)
000019fe  0000 0000       ori.b   #0,d0
00001a02  .... ....       [3 more]
-------------------------------
00001a0e  0676 0f00 0f00  addi.w  #f00,???[68020+]
00001a14  0000 0000       ori.b   #0,d0
00001a18  0000 1a80       ori.b   #80,d0
00001a1c  0000 19ea       ori.b   #ea,d0
00001a20  0800 00fe       btst.l  #1e,d0
00001a24  4b5e            ???
00001a26  0000 1a34       ori.b   #34,d0
00001a2a  0000 0000       ori.b   #0,d0
00001a2e  0000 1a34       ori.b   #34,d0
00001a32  0000 0000       ori.b   #0,d0
00001a36  1a2a 0000       move.b  0(a2),d5
00001a3a  1a26            move.b  -(a6),d5
00001a3c  0000 00fe       ori.b   #fe,d0
00001a40  83da            divs.w  (a2)+,d1
00001a42  00fe            
00001a44  7fc8            moveq   #-38,d7
00001a46  00fe            
00001a48  8040            or.w    d0,d0
00001a4a  00fe            
00001a4c  7faa            moveq   #-56,d7
00001a4e  00fe            
00001a50  7fb9            moveq   #-47,d7
00001a52  00fe            
00001a54  8008            or.b    a0,d0
00001a56  00fe            
00001a58  8140            or.w    d0,d0
00001a5a  00fe            
00001a5c  7fb2            moveq   #-4e,d7
00001a5e  00fe            
00001a60  7fc1            moveq   #-3f,d7
00001a62  0000 0000       ori.b   #0,d0
00001a66  0000 4ef9       ori.b   #f9,d0
00001a6a  00fc            
00001a6c  4790            chk.w   (a0),d3
00001a6e  4ef9 00fc 4772  jmp     fc4772
00001a74  4ef9 00fc 474e  jmp     fc474e
00001a7a  4ef9 00fc 46f8  jmp     fc46f8
00001a80  0000 1b18       ori.b   #18,d0
00001a84  0000 1a18       ori.b   #18,d0
00001a88  0800 00fc       btst.l  #1c,d0
00001a8c  459c            chk.w   (a4)+,d2
00001a8e  0000 0018       ori.b   #18,d0
00001a92  007c 0000       ori.w   #0,sr
00001a96  0000 0000       ori.b   #0,d0
00001a9a  .... ....       [2 more]
-------------------------------
00001aa2  00bf e001 0008  ori.l   #e0010008,???
00001aa8  0a04 0000       eori.b  #0,d4
00001aac  08ec 0000 08e8  bset.b  #0,8e8(a4)
00001ab2  0200 00fc       andi.b  #fc,d0
00001ab6  459c            chk.w   (a4)+,d2
00001ab8  0000 1a80       ori.b   #80,d0
00001abc  00fc            
00001abe  4684            not.l   d4
00001ac0  0000 0000       ori.b   #0,d0
00001ac4  .... ....       [2 more]
-------------------------------
00001acc  0000 2f78       ori.b   #78,d0
00001ad0  00fe            
00001ad2  93a6            sub.l   d1,-(a6)
00001ad4  0000 2fa2       ori.b   #a2,d0
00001ad8  0000 0000       ori.b   #0,d0
00001adc  .... ....       [2 more]
-------------------------------
00001ae4  0000 2c8c       ori.b   #8c,d0
00001ae8  00fe            
00001aea  5278 0000       addq.w  #1,0
00001aee  2ce6            move.l  -(a6),(a6)+
00001af0  0000 0000       ori.b   #0,d0
00001af4  .... ....       [2 more]
-------------------------------
00001afc  0000 1ac8       ori.b   #c8,d0
00001b00  4ef9 00fc 4790  jmp     fc4790
00001b06  4ef9 00fc 4772  jmp     fc4772
00001b0c  4ef9 00fc 474e  jmp     fc474e
00001b12  4ef9 00fc 46f8  jmp     fc46f8
00001b18  0000 1efe       ori.b   #fe,d0
00001b1c  0000 1a80       ori.b   #80,d0
00001b20  0800 00fc       btst.l  #1c,d0
00001b24  45aa 0000       chk.w   0(a2),d2
00001b28  0018 007c       ori.b   #7c,(a0)+
00001b2c  0000 0000       ori.b   #0,d0
00001b30  .... ....       [2 more]
-------------------------------
00001b38  0000 00bf       ori.b   #bf,d0
00001b3c  d000            add.b   d0,d0
00001b3e  2000            move.l  d0,d0
00001b40  0400 0000       subi.b  #0,d0
00001b44  092e 0000       btst.b  d4,0(a6)
00001b48  092a 0200       btst.b  d4,200(a2)
00001b4c  00fc            
00001b4e  45aa 0000       chk.w   0(a2),d2
00001b52  1b18            move.b  (a0)+,-(a5)
00001b54  00fc            
00001b56  4678 0000       not.w   0
00001b5a  0000 0000       ori.b   #0,d0
00001b5e  .... ....       [5 more]
-------------------------------
00001b72  221e            move.l  (a6)+,d1
00001b74  00fc            
00001b76  6dd4            blt.b   1b4c
00001b78  0000 227e       ori.b   #7e,d0
00001b7c  0000 0000       ori.b   #0,d0
00001b80  .... ....       [2 more]
-------------------------------
00001b88  0000 1efe       ori.b   #fe,d0
00001b8c  00fc            
00001b8e  4b18            chk.l   (a0)+,d5
00001b90  0000 1f78       ori.b   #78,d0
00001b94  83fa 00fe       divs.w  1c94(pc),d1
00001b98  4ef9 00fe 43be  jmp     fe43be
00001b9e  4ef9 00fe 4386  jmp     fe4386
00001ba4  0000 07ca       ori.b   #ca,d0
00001ba8  0000 1efe       ori.b   #fe,d0
00001bac  0800 00fe       btst.l  #1e,d0
00001bb0  42ea 0600       move.w  ccr,600(a2)
00001bb4  000c 0032       ori.b   #32,a4
00001bb8  0022 0001       ori.b   #1,-(a2)
00001bbc  0000 0000       ori.b   #0,d0
00001bc0  .... ....       [6 more]
-------------------------------
00001bd8  0000 1bf8       ori.b   #f8,d0
00001bdc  0000 0000       ori.b   #0,d0
00001be0  .... ....       [6 more]
-------------------------------
00001bf8  0000 4f50       ori.b   #50,d0
00001bfc  0010 fffe       ori.b   #fe,(a0)
00001c00  ffff            f-line
00001c02  0000 0000       ori.b   #0,d0
00001c06  003d 0000       move.b  0(a0),???
00001c0a  a498            a-line
00001c0c  0000 0010       ori.b   #10,d0
00001c10  0000 5980       ori.b   #80,d0
00001c14  0000 0000       ori.b   #0,d0
00001c18  00fc            
00001c1a  00b6 00fc 4b64  ori.l   #fc4b64,-2(a6,d0.w*1)
00001c20  00fe 
00001c22  43dc            lea.l   (a4)+,a1
00001c24  00fe            
00001c26  4b44            ???
00001c28  00fc            
00001c2a  4574            ???
00001c2c  00fc            
00001c2e  47fc 00fe 42d0  lea.l   #fe42d0
00001c34  00fe            
00001c36  4528 00fc       chk.l   fc(a0),d2
00001c3a  53e4            sls.b   -(a4)
00001c3c  00fe            
00001c3e  4b8e            chk.w   a6,d5
00001c40  00fe            
00001c42  4bda            lea.l   (a2)+,a5
00001c44  00fe            
00001c46  8d6c 00fc       or.w    d6,fc(a4)
00001c4a  3508            move.w  a0,-(a2)
00001c4c  00fe            
00001c4e  4c26 00fe       mulu.l  -(a6),d0
00001c52  09a4            bclr.b  d4,-(a4)
00001c54  00fe            
00001c56  4c6c 00fe 9564  divul.l -6a9c(a4),d6:d0
00001c5c  00fd            
00001c5e  3d8c 00fc       move.w  a4,-4(a6,d0.w*1)
00001c62  3276 00fe       movea.w -2(a6,d0.w*1),a1
00001c66  3da4 00fe       move.w  -(a4),-2(a6,d0.w*1)
00001c6a  b47c 00ff       cmp.w   #ff,d2
00001c6e  3e62            movea.w -(a2),sp
00001c70  00fe            
00001c72  b060            cmp.w   -(a0),d0
00001c74  00fe            
00001c76  83e0            divs.w  -(a0),d1
00001c78  0000 0000       ori.b   #0,d0
00001c7c  .... ....       [1 more]
-------------------------------
00001c80  4ef9 00fc 52f0  jmp     fc52f0
00001c86  4ef9 00fc 51dc  jmp     fc51dc
00001c8c  4ef9 00fc 51aa  jmp     fc51aa
00001c92  4ef9 00fc 519e  jmp     fc519e
00001c98  4ef9 00fc 518c  jmp     fc518c
00001c9e  4ef9 00fc 517a  jmp     fc517a
00001ca4  4ef9 00fc 50b6  jmp     fc50b6
00001caa  4ef9 00fc 5044  jmp     fc5044
00001cb0  4ef9 00fc 50ca  jmp     fc50ca
00001cb6  4ef9 00fc 509a  jmp     fc509a
00001cbc  4ef9 00fc 4ff0  jmp     fc4ff0
00001cc2  4ef9 00fc 4f0e  jmp     fc4f0e
00001cc8  4ef9 00fc 4fd4  jmp     fc4fd4
00001cce  4ef9 00fc 5064  jmp     fc5064
00001cd4  4ef9 00fc 4e8a  jmp     fc4e8a
00001cda  4ef9 00fc 4cda  jmp     fc4cda
00001ce0  4ef9 00fc 4f20  jmp     fc4f20
00001ce6  4ef9 00fc 4ef8  jmp     fc4ef8
00001cec  4ef9 00fc 4fbc  jmp     fc4fbc
00001cf2  4ef9 00fc 4ee0  jmp     fc4ee0
00001cf8  4ef9 00fc 5028  jmp     fc5028
00001cfe  4ef9 00fc 4c70  jmp     fc4c70
00001d04  4ef9 00fc 4c70  jmp     fc4c70
00001d0a  4ef9 00fc 4c6c  jmp     fc4c6c
00001d10  4ef9 00fc 4c64  jmp     fc4c64
00001d16  0000 221e       ori.b   #1e,d0
00001d1a  0000 0676       ori.b   #76,d0
00001d1e  0800 00fc       btst.l  #1c,d0
00001d22  4bb0 0400       chk.w   0(a0,d0.w*4),d5
00001d26  0096 01c8 0022  ori.l   #1c80022,vposr(a6)
00001d2c  0001 00fc       ori.b   #fc,d1
00001d30  4b7e            ???
00001d32  958b            subx.l  -(a3),-(a2)
00001d34  0000 0000       ori.b   #0,d0
00001d38  .... ....       [1 more]
-------------------------------
00001d3c  0676 0000 0000  addi.w  #0,0(a6,d0.w*1)
00001d42  0000 0000       ori.b   #0,d0
00001d46  .... ....       [3 more]
-------------------------------
00001d52  0000 1d56       ori.b   #56,d0
00001d56  0000 0000       ori.b   #0,d0
00001d5a  0000 1d52       ori.b   #52,d0
00001d5e  0000 0000       ori.b   #0,d0
00001d62  1d64 0000       move.b  -(a4),vposr(a6)
00001d66  0000 0000       ori.b   #0,d0
00001d6a  1d60 0000       move.b  -(a0),vposr(a6)
00001d6e  0000 0000       ori.b   #0,d0
00001d72  .... ....       [7 more]
-------------------------------
00001d8e  0101            btst.l  d0,d1
00001d90  0101            btst.l  d0,d1
00001d92  0101            btst.l  d0,d1
00001d94  0101            btst.l  d0,d1
00001d96  0101            btst.l  d0,d1
00001d98  0101            btst.l  d0,d1
00001d9a  0101            btst.l  d0,d1
00001d9c  0101            btst.l  d0,d1
00001d9e  0101            btst.l  d0,d1
00001da0  0101            btst.l  d0,d1
00001da2  0101            btst.l  d0,d1
00001da4  0101            btst.l  d0,d1
00001da6  0101            btst.l  d0,d1
00001da8  0101            btst.l  d0,d1
00001daa  0101            btst.l  d0,d1
00001dac  0101            btst.l  d0,d1
00001dae  0101            btst.l  d0,d1
00001db0  0101            btst.l  d0,d1
00001db2  0101            btst.l  d0,d1
00001db4  0101            btst.l  d0,d1
00001db6  0101            btst.l  d0,d1
00001db8  0101            btst.l  d0,d1
00001dba  0101            btst.l  d0,d1
00001dbc  0101            btst.l  d0,d1
00001dbe  0101            btst.l  d0,d1
00001dc0  0101            btst.l  d0,d1
00001dc2  0101            btst.l  d0,d1
00001dc4  0101            btst.l  d0,d1
00001dc6  0101            btst.l  d0,d1
00001dc8  0101            btst.l  d0,d1
00001dca  0101            btst.l  d0,d1
00001dcc  0101            btst.l  d0,d1
00001dce  0101            btst.l  d0,d1
00001dd0  0101            btst.l  d0,d1
00001dd2  0101            btst.l  d0,d1
00001dd4  0101            btst.l  d0,d1
00001dd6  0101            btst.l  d0,d1
00001dd8  0101            btst.l  d0,d1
00001dda  0101            btst.l  d0,d1
00001ddc  0101            btst.l  d0,d1
00001dde  0101            btst.l  d0,d1
00001de0  0101            btst.l  d0,d1
00001de2  0101            btst.l  d0,d1
00001de4  0101            btst.l  d0,d1
00001de6  0101            btst.l  d0,d1
00001de8  0101            btst.l  d0,d1
00001dea  0101            btst.l  d0,d1
00001dec  0101            btst.l  d0,d1
00001dee  0101            btst.l  d0,d1
00001df0  0101            btst.l  d0,d1
00001df2  0101            btst.l  d0,d1
00001df4  0101            btst.l  d0,d1
00001df6  0101            btst.l  d0,d1
00001df8  0101            btst.l  d0,d1
00001dfa  0101            btst.l  d0,d1
00001dfc  0101            btst.l  d0,d1
00001dfe  0101            btst.l  d0,d1
00001e00  0101            btst.l  d0,d1
00001e02  0101            btst.l  d0,d1
00001e04  0101            btst.l  d0,d1
00001e06  0101            btst.l  d0,d1
00001e08  0101            btst.l  d0,d1
00001e0a  0101            btst.l  d0,d1
00001e0c  0101            btst.l  d0,d1
00001e0e  0000 0000       ori.b   #0,d0
00001e12  .... ....       [17 more]
-------------------------------
00001e56  0001 0101       ori.b   #1,d1
00001e5a  0101            btst.l  d0,d1
00001e5c  0101            btst.l  d0,d1
00001e5e  0000 0000       ori.b   #0,d0
00001e62  .... ....       [7 more]
-------------------------------
00001e7e  0000 1e82       ori.b   #82,d0
00001e82  0000 0000       ori.b   #0,d0
00001e86  0000 1e7e       ori.b   #7e,d0
00001e8a  0000 0000       ori.b   #0,d0
00001e8e  .... ....       [3 more]
-------------------------------
00001e9a  ffff            f-line
00001e9c  0000 0000       ori.b   #0,d0
00001ea0  .... ....       [16 more]
-------------------------------
00001ee0  4ef9 00fc 4adc  jmp     fc4adc
00001ee6  4ef9 00fc 4a76  jmp     fc4a76
00001eec  4ef9 00fc 49fe  jmp     fc49fe
00001ef2  4ef9 00fc 4ad6  jmp     fc4ad6
00001ef8  4ef9 00fc 4aca  jmp     fc4aca
00001efe  0000 1ba4       ori.b   #a4,d0
00001f02  0000 1b18       ori.b   #18,d0
00001f06  0800 00fc       btst.l  #1c,d0
00001f0a  4816            nbcd.b  vposr(a6)
00001f0c  0600 001e       addi.b  #1e,d0
00001f10  0090 0022 0001  ori.l   #220001,(a0)
00001f16  0000 0000       ori.b   #0,d0
00001f1a  .... ....       [2 more]
-------------------------------
00001f22  61c0            bsr.b   1ee4
00001f24  0100            btst.l  d0,d0
00001f26  0000 0676       ori.b   #76,d0
00001f2a  0000 1b18       ori.b   #18,d0
00001f2e  0000 0000       ori.b   #0,d0
00001f32  ffff            f-line
00001f34  ffff            f-line
00001f36  ffff            f-line
00001f38  ffff            f-line
00001f3a  ffff            f-line
00001f3c  ffff            f-line
00001f3e  0000 1f42       ori.b   #42,d0
00001f42  0000 0000       ori.b   #0,d0
00001f46  0000 1f3e       ori.b   #3e,d0
00001f4a  0000 0000       ori.b   #0,d0
00001f4e  .... ....       [3 more]
-------------------------------
00001f5a  0000 1efe       ori.b   #fe,d0
00001f5e  00fc            
00001f60  4ae8 0000       tas.b   0(a0)
00001f64  0000 0000       ori.b   #0,d0
00001f68  .... ....       [2 more]
-------------------------------
00001f70  0000 1efe       ori.b   #fe,d0
00001f74  00fc            
00001f76  4b00            chk.l   d0,d5
00001f78  0000 0000       ori.b   #0,d0
00001f7c  .... ....       [3 more]
-------------------------------
00001f88  1efe            move.b  ???
00001f8a  00fc            
00001f8c  4b18            chk.l   (a0)+,d5
00001f8e  0000 4ef9       ori.b   #f9,d0
00001f92  00fc            
00001f94  6adc            bpl.b   1f72
00001f96  4ef9 00fc 6d40  jmp     fc6d40
00001f9c  4ef9 00fc 6d40  jmp     fc6d40
00001fa2  4ef9 00fc 6884  jmp     fc6884
00001fa8  4ef9 00fc 6a8c  jmp     fc6a8c
00001fae  4ef9 00fc 62f6  jmp     fc62f6
00001fb4  4ef9 00fc 6306  jmp     fc6306
00001fba  4ef9 00fc 62ac  jmp     fc62ac
00001fc0  4ef9 00fc 686c  jmp     fc686c
00001fc6  4ef9 00fc 73ae  jmp     fc73ae
00001fcc  4ef9 00fc 9ac4  jmp     fc9ac4
00001fd2  4ef9 00fc 65e0  jmp     fc65e0
00001fd8  4ef9 00fc 65c8  jmp     fc65c8
00001fde  4ef9 00fc 65a4  jmp     fc65a4
00001fe4  4ef9 00fc 654c  jmp     fc654c
00001fea  4ef9 00fc 653c  jmp     fc653c
00001ff0  4ef9 00fc 62bc  jmp     fc62bc
00001ff6  4ef9 00fc 6854  jmp     fc6854
00001ffc  4ef9 00fc 64ac  jmp     fc64ac
00002002  4ef9 00fc 649c  jmp     fc649c
00002008  4ef9 00fc 62da  jmp     fc62da
0000200e  4ef9 00fc 62ce  jmp     fc62ce
00002014  4ef9 00fc 62e6  jmp     fc62e6
0000201a  4ef9 00fc f418  jmp     fcf418
00002020  4ef9 00fc 629c  jmp     fc629c
00002026  4ef9 00fc 628c  jmp     fc628c
0000202c  4ef9 00fc 6338  jmp     fc6338
00002032  4ef9 00fc 6318  jmp     fc6318
00002038  4ef9 00fc 7f06  jmp     fc7f06
0000203e  4ef9 00fc 7ecc  jmp     fc7ecc
00002044  4ef9 00fc 7f54  jmp     fc7f54
0000204a  4ef9 00fc 5ea0  jmp     fc5ea0
00002050  4ef9 00fc 64d4  jmp     fc64d4
00002056  4ef9 00fc 64bc  jmp     fc64bc
0000205c  4ef9 00fc 634c  jmp     fc634c
00002062  4ef9 00fc 6358  jmp     fc6358
00002068  4ef9 00fc 63a4  jmp     fc63a4
0000206e  4ef9 00fc 638c  jmp     fc638c
00002074  4ef9 00fc 9b24  jmp     fc9b24
0000207a  4ef9 00fc 9b12  jmp     fc9b12
00002080  4ef9 00fc 9b06  jmp     fc9b06
00002086  4ef9 00fc 9af8  jmp     fc9af8
0000208c  4ef9 00fc 5e58  jmp     fc5e58
00002092  4ef9 00fc 5b04  jmp     fc5b04
00002098  4ef9 00fc 6484  jmp     fc6484
0000209e  4ef9 00fc 5ece  jmp     fc5ece
000020a4  4ef9 00fc 9ae6  jmp     fc9ae6
000020aa  4ef9 00fc 9ad4  jmp     fc9ad4
000020b0  4ef9 00fc 9ab8  jmp     fc9ab8
000020b6  4ef9 00fc 6364  jmp     fc6364
000020bc  4ef9 00fc 5eb8  jmp     fc5eb8
000020c2  4ef9 00fc 5eb2  jmp     fc5eb2
000020c8  4ef9 00fc 5eac  jmp     fc5eac
000020ce  4ef9 00fc 5ae4  jmp     fc5ae4
000020d4  4ef9 00fc 5ad0  jmp     fc5ad0
000020da  4ef9 00fc 66f4  jmp     fc66f4
000020e0  4ef9 00fc 65ec  jmp     fc65ec
000020e6  4ef9 00fc 5c70  jmp     fc5c70
000020ec  4ef9 00fc 5990  jmp     fc5990
000020f2  4ef9 00fc 54c4  jmp     fc54c4
000020f8  4ef9 00fc 63d8  jmp     fc63d8
000020fe  4ef9 00fc 5a44  jmp     fc5a44
00002104  4ef9 00fc 57f8  jmp     fc57f8
0000210a  4ef9 00fc 5838  jmp     fc5838
00002110  4ef9 00fc 5a7c  jmp     fc5a7c
00002116  4ef9 00fc 5f36  jmp     fc5f36
0000211c  4ef9 00fc 5ee0  jmp     fc5ee0
00002122  4ef9 00fc 5430  jmp     fc5430
00002128  4ef9 00fc 5634  jmp     fc5634
0000212e  4ef9 00fc 5818  jmp     fc5818
00002134  4ef9 00fc 5b60  jmp     fc5b60
0000213a  4ef9 00fc 5a58  jmp     fc5a58
00002140  4ef9 00fc 63cc  jmp     fc63cc
00002146  4ef9 00fc 63bc  jmp     fc63bc
0000214c  4ef9 00fc 582c  jmp     fc582c
00002152  4ef9 00fc 637c  jmp     fc637c
00002158  4ef9 00fc 5b40  jmp     fc5b40
0000215e  4ef9 00fc 5b4c  jmp     fc5b4c
00002164  4ef9 00fc 6af4  jmp     fc6af4
0000216a  4ef9 00fc 6ac4  jmp     fc6ac4
00002170  4ef9 00fc 73a2  jmp     fc73a2
00002176  4ef9 00fc 7390  jmp     fc7390
0000217c  4ef9 00fc 7382  jmp     fc7382
00002182  4ef9 00fc 7370  jmp     fc7370
00002188  4ef9 00fc 7364  jmp     fc7364
0000218e  4ef9 00fc 7352  jmp     fc7352
00002194  4ef9 00fc 7346  jmp     fc7346
0000219a  4ef9 00fc 7334  jmp     fc7334
000021a0  4ef9 00fc 7328  jmp     fc7328
000021a6  4ef9 00fc 7316  jmp     fc7316
000021ac  4ef9 00fc 7308  jmp     fc7308
000021b2  4ef9 00fc 72fc  jmp     fc72fc
000021b8  4ef9 00fc 72ee  jmp     fc72ee
000021be  4ef9 00fc 72e0  jmp     fc72e0
000021c4  4ef9 00fc 7fa6  jmp     fc7fa6
000021ca  4ef9 00fc 7f82  jmp     fc7f82
000021d0  4ef9 00fc 7eae  jmp     fc7eae
000021d6  4ef9 00fc 7d84  jmp     fc7d84
000021dc  4ef9 00fc 7f66  jmp     fc7f66
000021e2  4ef9 00fc 8038  jmp     fc8038
000021e8  4ef9 00fc 7fd8  jmp     fc7fd8
000021ee  4ef9 00fc 7d00  jmp     fc7d00
000021f4  4ef9 00fc 7cc8  jmp     fc7cc8
000021fa  4ef9 00fc 7a12  jmp     fc7a12
00002200  4ef9 00fc 74aa  jmp     fc74aa
00002206  4ef9 00fc 6d40  jmp     fc6d40
0000220c  4ef9 00fc 6d44  jmp     fc6d44
00002212  4ef9 00fc 6d44  jmp     fc6d44
00002218  4ef9 00fc 6d40  jmp     fc6d40
0000221e  0000 45ce       ori.b   #ce,d0
00002222  0000 1d16       ori.b   #16,d0
00002226  0000 00fc       ori.b   #fc,d0
0000222a  53fe 0400       trapls  #400
0000222e  028e 0148 0022  andi.l  #1480022,a6
00002234  0001 0000       ori.b   #0,d1
00002238  0000 a923       ori.b   #23,d0
0000223c  0000 0001       ori.b   #1,d0
00002240  0000 49a6       ori.b   #a6,d0
00002244  0000 2368       ori.b   #68,d0
00002248  0000 1b18       ori.b   #18,d0
0000224c  0000 0000       ori.b   #0,d0
00002250  0000 0676       ori.b   #76,d0
00002254  0000 0676       ori.b   #76,d0
00002258  0000 0000       ori.b   #0,d0
0000225c  0000 6442       ori.b   #42,d0
00002260  0000 0000       ori.b   #0,d0
00002264  .... ....       [1 more]
-------------------------------
00002268  0000 2ef4       ori.b   #f4,d0
0000226c  0000 08fe       ori.b   #fe,d0
00002270  000a 0000       ori.b   #0,a2
00002274  0000 0000       ori.b   #0,d0
00002278  221e            move.l  (a6)+,d1
0000227a  00fc            
0000227c  6d48            blt.b   22c6
0000227e  0000 0000       ori.b   #0,d0
00002282  .... ....       [1 more]
-------------------------------
00002286  000a 0000       ori.b   #0,a2
0000228a  0000 0000       ori.b   #0,d0
0000228e  221e            move.l  (a6)+,d1
00002290  00fc            
00002292  6dd4            blt.b   2268
00002294  0000 0000       ori.b   #0,d0
00002298  .... ....       [3 more]
-------------------------------
000022a4  221e            move.l  (a6)+,d1
000022a6  00fc            
000022a8  6dfa            blt.b   22a4
000022aa  0000 23c8       ori.b   #c8,d0
000022ae  0000 0000       ori.b   #0,d0
000022b2  0000 2400       ori.b   #0,d0
000022b6  0000 0000       ori.b   #0,d0
000022ba  23c8 4000 0000  move.l  a0,40000000
000022c0  0000 0000       ori.b   #0,d0
000022c4  0100            btst.l  d0,d0
000022c6  0000 ffff       ori.b   #ff,d0
000022ca  ffff            f-line
000022cc  0000 22d0       ori.b   #d0,d0
000022d0  0000 0000       ori.b   #0,d0
000022d4  0000 22cc       ori.b   #cc,d0
000022d8  0000 0000       ori.b   #0,d0
000022dc  .... ....       [1 more]
-------------------------------
000022e0  22e2            move.l  -(a2),(a1)+
000022e2  0000 0000       ori.b   #0,d0
000022e6  0000 22de       ori.b   #de,d0
000022ea  0000 0004       ori.b   #4,d0
000022ee  0000 1bd8       ori.b   #d8,d0
000022f2  0137 01d1       btst.b  d0,???[68020+]
000022f6  0100            btst.l  d0,d0
000022f8  0280 04ca 0513  andi.l  #4ca0513,d0
000022fe  0000 2c38       ori.b   #38,d0
00002302  0000 2438       ori.b   #38,d0
00002306  3f9d 0030       move.w  (a5)+,30(sp,d0.w*1)
0000230a  0000 0000       ori.b   #0,d0
0000230e  .... ....       [22 more]
-------------------------------
00002366  0000 00e0       ori.b   #e0,d0
0000236a  0000 00e2       ori.b   #e2,d0
0000236e  0000 0120       ori.b   #20,d0
00002372  0000 0122       ori.b   #22,d0
00002376  4f50            ???
00002378  0124            btst.b  d0,-(a4)
0000237a  0000 0126       ori.b   #26,d0
0000237e  23c0 0128 0000  move.l  d0,1280000
00002384  012a 23c0       btst.b  d0,23c0(a2)
00002388  012c 0000       btst.b  d0,0(a4)
0000238c  012e 23c0       btst.b  d0,23c0(a6)
00002390  0130 0000       btst.b  d0,0(a0,d0.w*1)
00002394  0132 23c0       btst.b  d0,???[68020+]
00002398  0134 0000       btst.b  d0,0(a4,d0.w*1)
0000239c  0136 23c0       btst.b  d0,???[68020+]
000023a0  0138 0000       btst.b  d0,0
000023a4  013a 23c0       btst.b  d0,4766(pc)
000023a8  013c 0000       btst.b  d0,#0
000023ac  013e            btst.b  d0,???
000023ae  23c0 0c01 fffe  move.l  d0,c01fffe
000023b4  008a 0000 fffe  ori.l   #fffe,a2
000023ba  ffff            f-line
000023bc  ffff            f-line
000023be  fffe            f-line
000023c0  fe00            f-line
000023c2  ff00            f-line
000023c4  0000 0000       ori.b   #0,d0
000023c8  0000 2400       ori.b   #0,d0
000023cc  0000 22aa       ori.b   #aa,d0
000023d0  0c00 00fc       cmpi.b  #fc,d0
000023d4  84d8            divu.w  (a0)+,d2
000023d6  0000 0000       ori.b   #0,d0
000023da  0000 0009       ori.b   #9,d0
000023de  0849 000a       bchg.b  #2,a1
000023e2  0006 0001       ori.b   #1,d6
000023e6  0002 20ff       ori.b   #ff,d2
000023ea  00fc            
000023ec  8512            or.b    d2,(a2)
000023ee  00f0            
000023f0  00fc            
000023f2  8d82            or.l    d6,d2
000023f4  0000 0000       ori.b   #0,d0
000023f8  .... ....       [2 more]
-------------------------------
00002400  0000 22ae       ori.b   #ae,d0
00002404  0000 23c8       ori.b   #c8,d0
00002408  0c00 00fc       cmpi.b  #fc,d0
0000240c  84d8            divu.w  (a0)+,d2
0000240e  0000 0000       ori.b   #0,d0
00002412  0000 0008       ori.b   #8,d0
00002416  0041 0008       ori.w   #8,d1
0000241a  0006 0001       ori.b   #1,d6
0000241e  0001 20ff       ori.b   #ff,d1
00002422  00fc            
00002424  9134 00c0       sub.b   d0,-40(a4,d0.w*1)
00002428  00fc            
0000242a  9734 0000       sub.b   d3,0(a4,d0.w*1)
0000242e  0000 0000       ori.b   #0,d0
00002432  .... ....       [2 more]
-------------------------------
0000243a  0000 0007       ori.b   #7,d0
0000243e  c3c8            muls.w  a0,d1
00002440  0000 0000       ori.b   #0,d0
00002444  .... ....       [510 more]
-------------------------------
00002c3c  0007 bbc8       ori.b   #c8,d7
00002c40  0000 0000       ori.b   #0,d0
00002c44  .... ....       [1 more]
-------------------------------
00002c48  0000 2c4c       ori.b   #4c,d0
00002c4c  0000 0000       ori.b   #0,d0
00002c50  0000 2c48       ori.b   #48,d0
00002c54  0000 0000       ori.b   #0,d0
00002c58  .... ....       [3 more]
-------------------------------
00002c64  ffff            f-line
00002c66  0000 4ef9       ori.b   #f9,d0
00002c6a  00fe            
00002c6c  4d7c            ???
00002c6e  4ef9 00fe 4cb8  jmp     fe4cb8
00002c74  4ef9 00fe 4e50  jmp     fe4e50
00002c7a  4ef9 00fe 50be  jmp     fe50be
00002c80  4ef9 00fe 4e52  jmp     fe4e52
00002c86  4ef9 00fe 50e8  jmp     fe50e8
00002c8c  0000 2dc4       ori.b   #c4,d0
00002c90  0000 07d4       ori.b   #d4,d0
00002c94  0300            btst.l  d1,d0
00002c96  00fe            
00002c98  4ba8 0400       chk.w   400(a0),d5
00002c9c  0024 0113       ori.b   #13,-(a4)
00002ca0  0022 0001       ori.b   #1,-(a2)
00002ca4  0000 0000       ori.b   #0,d0
00002ca8  b846            cmp.w   d6,d4
00002caa  0000 0002       ori.b   #2,d0
00002cae  0000 0000       ori.b   #0,d0
00002cb2  0000 0676       ori.b   #76,d0
00002cb6  00fe            
00002cb8  5062            addq.w  #8,-(a2)
00002cba  00fe            
00002cbc  509a            addq.l  #8,(a2)+
00002cbe  000e 0000       ori.b   #0,a6
00002cc2  0000 0000       ori.b   #0,d0
00002cc6  0000 0400       ori.b   #0,d0
00002cca  00fe            
00002ccc  4ba8 0000       chk.w   0(a0),d5
00002cd0  0000 0000       ori.b   #0,d0
00002cd4  0000 4468       ori.b   #68,d0
00002cd8  0000 0000       ori.b   #0,d0
00002cdc  0000 4468       ori.b   #68,d0
00002ce0  0000 0000       ori.b   #0,d0
00002ce4  1a80            move.b  d0,(a5)
00002ce6  0000 0000       ori.b   #0,d0
00002cea  .... ....       [1 more]
-------------------------------
00002cee  0200 00fe       andi.b  #fe,d0
00002cf2  4ba8 0000       chk.w   0(a0),d5
00002cf6  2c8c            move.l  a4,(a6)
00002cf8  00fe            
00002cfa  5278 0000       addq.w  #1,0
00002cfe  0000 0000       ori.b   #0,d0
00002d02  .... ....       [32 more]
-------------------------------
00002d82  4766            ???
00002d84  0000 0000       ori.b   #0,d0
00002d88  0000 4766       ori.b   #66,d0
00002d8c  0000 0000       ori.b   #0,d0
00002d90  .... ....       [4 more]
-------------------------------
00002da0  4ef9 00fe 4d7c  jmp     fe4d7c
00002da6  4ef9 00fe 4cb8  jmp     fe4cb8
00002dac  4ef9 00fe 4e50  jmp     fe4e50
00002db2  4ef9 00fe 5516  jmp     fe5516
00002db8  4ef9 00fe 4e52  jmp     fe4e52
00002dbe  4ef9 00fe 5534  jmp     fe5534
00002dc4  0000 2f4e       ori.b   #4e,d0
00002dc8  0000 2c8c       ori.b   #8c,d0
00002dcc  0300            btst.l  d1,d0
00002dce  00fe            
00002dd0  4bf4 0400       lea.l   0(a4,d0.w*4),a5
00002dd4  0024 014d       ori.b   #4d,-(a4)
00002dd8  0022 0001       ori.b   #1,-(a2)
00002ddc  0000 0000       ori.b   #0,d0
00002de0  c0ea 0000       mulu.w  0(a2),d0
00002de4  0001 0000       ori.b   #0,d1
00002de8  0000 0000       ori.b   #0,d0
00002dec  0676 00fe 54d0  addi.w  #fe,-30(a6,d5.w*4)
00002df2  00fe            
00002df4  5508            subq.b  #2,a0
00002df6  000e 0000       ori.b   #0,a6
00002dfa  19ea 0000 0000  move.b  0(a2),#0
00002e00  0000 0000       ori.b   #0,d0
00002e04  0400 00fe       subi.b  #fe,d0
00002e08  4bf4 0000       lea.l   0(a4,d0.w*1),a5
00002e0c  0000 0000       ori.b   #0,d0
00002e10  0000 4422       ori.b   #22,d0
00002e14  0000 0000       ori.b   #0,d0
00002e18  0000 4422       ori.b   #22,d0
00002e1c  0000 0000       ori.b   #0,d0
00002e20  .... ....       [16 more]
-------------------------------
00002e60  0000 0003       ori.b   #3,d0
00002e64  0000 0001       ori.b   #1,d0
00002e68  0001 0000       ori.b   #0,d1
00002e6c  005f 0000       ori.w   #0,(sp)+
00002e70  0000 0000       ori.b   #0,d0
00002e74  250a            move.l  a2,-(a2)
00002e76  0801 0000       btst.l  #0,d1
00002e7a  0000 0000       ori.b   #0,d0
00002e7e  0000 0400       ori.b   #0,d0
00002e82  00fe            
00002e84  4bf4 0000       lea.l   0(a4,d0.w*1),a5
00002e88  0000 0000       ori.b   #0,d0
00002e8c  0000 2e90       ori.b   #90,d0
00002e90  0000 0000       ori.b   #0,d0
00002e94  0000 2e8c       ori.b   #8c,d0
00002e98  0000 0000       ori.b   #0,d0
00002e9c  .... ....       [19 more]
-------------------------------
00002ee8  0062 0000       ori.w   #0,-(a2)
00002eec  0000 0000       ori.b   #0,d0
00002ef0  0000 0400       ori.b   #0,d0
00002ef4  0000 2ff0       ori.b   #f0,d0
00002ef8  0000 2268       ori.b   #68,d0
00002efc  0200 00fe       andi.b  #fe,d0
00002f00  4bf4 0000       lea.l   0(a4,d0.w*1),a5
00002f04  003e            move.l  d4,???
00002f06  00fe            
00002f08  5824            addq.b  #4,-(a4)
00002f0a  0f00            btst.l  d7,d0
00002f0c  0f00            btst.l  d7,d0
00002f0e  0f00            btst.l  d7,d0
00002f10  0000 0000       ori.b   #0,d0
00002f14  .... ....       [1 more]
-------------------------------
00002f18  4ef9 00fe 953a  jmp     fe953a
00002f1e  4ef9 00fe 94fa  jmp     fe94fa
00002f24  4ef9 00fe 9516  jmp     fe9516
00002f2a  4ef9 00fe 92d4  jmp     fe92d4
00002f30  4ef9 00fe 9046  jmp     fe9046
00002f36  4ef9 00fe 9042  jmp     fe9042
00002f3c  4ef9 00fe 9042  jmp     fe9042
00002f42  4ef9 00fe 90f2  jmp     fe90f2
00002f48  4ef9 00fe 90c0  jmp     fe90c0
00002f4e  0000 304c       ori.b   #4c,d0
00002f52  0000 2dc4       ori.b   #c4,d0
00002f56  0300            btst.l  d1,d0
00002f58  00fe            
00002f5a  8d86            or.l    d6,d6
00002f5c  0400 0036       subi.b  #36,d0
00002f60  00d6            
00002f62  0022 0001       ori.b   #1,-(a2)
00002f66  00fe            
00002f68  8d94            or.l    d6,(a4)
00002f6a  f449            f-line
00002f6c  0000 0003       ori.b   #3,d0
00002f70  0032 4e20 0000  ori.b   #20,0(a2,d0.w*1)
00002f76  4e20            ???
00002f78  0000 2f7c       ori.b   #7c,d0
00002f7c  0000 0000       ori.b   #0,d0
00002f80  0000 2f78       ori.b   #78,d0
00002f84  0000 0000       ori.b   #0,d0
00002f88  .... ....       [1 more]
-------------------------------
00002f8c  03e8 0000       bset.b  d1,0(a0)
00002f90  02cb            
00002f92  0000 1a80       ori.b   #80,d0
00002f96  0000 2f4e       ori.b   #4e,d0
00002f9a  00fe            
00002f9c  946c 00fe       sub.w   fe(a4),d2
00002fa0  94b6 0000       sub.l   0(a6,d0.w*1),d2
00002fa4  0000 0000       ori.b   #0,d0
00002fa8  0000 021e       ori.b   #1e,d0
00002fac  00fe            
00002fae  8d86            or.l    d6,d6
00002fb0  0000 2f78       ori.b   #78,d0
00002fb4  00fe            
00002fb6  93a6            sub.l   d1,-(a6)
00002fb8  0000 614e       ori.b   #4e,d0
00002fbc  0000 0000       ori.b   #0,d0
00002fc0  0000 2fb8       ori.b   #b8,d0
00002fc4  0000 0000       ori.b   #0,d0
00002fc8  43e4            lea.l   -(a4),a1
00002fca  0000 0000       ori.b   #0,d0
00002fce  0000 6176       ori.b   #76,d0
00002fd2  0000 0000       ori.b   #0,d0
00002fd6  .... ....       [1 more]
-------------------------------
00002fda  4e20            ???
00002fdc  0001 0000       ori.b   #0,d1
00002fe0  0000 0000       ori.b   #0,d0
00002fe4  0000 2f4e       ori.b   #4e,d0
00002fe8  00fe            
00002fea  94b4 00fe       sub.l   -2(a4,d0.w*1),d2
00002fee  94f8 0000       suba.w  0,a2
00002ff2  0902            btst.l  d4,d2
00002ff4  0000 2ef4       ori.b   #f4,d0
00002ff8  0200 00fe       andi.b  #fe,d0
00002ffc  8d86            or.l    d6,d6
00002ffe  0000 2fc6       ori.b   #c6,d0
00003002  00fe            
00003004  935a            sub.w   d1,(a2)+
00003006  0000 43e4       ori.b   #e4,d0
0000300a  0000 0000       ori.b   #0,d0
0000300e  0000 3006       ori.b   #6,d0
00003012  0000 0000       ori.b   #0,d0
00003016  .... ....       [2 more]
-------------------------------
0000301e  0013 0000       ori.b   #0,(a3)
00003022  0676 0000 0000  addi.w  #0,0(a6,d0.w*1)
00003028  4ef9 00fc 35d8  jmp     fc35d8
0000302e  4ef9 00fc 35cc  jmp     fc35cc
00003034  4ef9 00fc 35ca  jmp     fc35ca
0000303a  4ef9 00fc 35c2  jmp     fc35c2
00003040  4ef9 00fc 35b6  jmp     fc35b6
00003046  4ef9 00fc 35a4  jmp     fc35a4
0000304c  0000 32ec       ori.b   #ec,d0
00003050  0000 2f4e       ori.b   #4e,d0
00003054  0300            btst.l  d1,d0
00003056  00fc            
00003058  3522            move.w  -(a2),-(a2)
0000305a  0400 0024       subi.b  #24,d0
0000305e  027a 0022 0001  andi.w  #22,3063(pc)
00003064  00fc            
00003066  3530 2248       move.w  48(a0,d2.w*2),-(a2)
0000306a  0000 0000       ori.b   #0,d0
0000306e  .... ....       [2 more]
-------------------------------
00003076  3116            move.w  (a6),-(a0)
00003078  0000 3116       ori.b   #16,d0
0000307c  0000 3182       ori.b   #82,d0
00003080  0000 3116       ori.b   #16,d0
00003084  0000 31ee       ori.b   #ee,d0
00003088  0000 3116       ori.b   #16,d0
0000308c  0000 3182       ori.b   #82,d0
00003090  0000 3116       ori.b   #16,d0
00003094  0000 325a       ori.b   #5a,d0
00003098  0000 3116       ori.b   #16,d0
0000309c  0000 3182       ori.b   #82,d0
000030a0  0000 3116       ori.b   #16,d0
000030a4  0000 31ee       ori.b   #ee,d0
000030a8  0000 3116       ori.b   #16,d0
000030ac  0000 3182       ori.b   #82,d0
000030b0  0000 3116       ori.b   #16,d0
000030b4  0000 ffff       ori.b   #ff,d0
000030b8  ffff            f-line
000030ba  ffff            f-line
000030bc  ffff            f-line
000030be  ff7f            f-line
000030c0  ff7f            f-line
000030c2  ff7f            f-line
000030c4  ff7f            f-line
000030c6  007f 0000       ori.w   #0,???
000030ca  0000 0000       ori.b   #0,d0
000030ce  .... ....       [2 more]
-------------------------------
000030d6  0000 30da       ori.b   #da,d0
000030da  0000 0000       ori.b   #0,d0
000030de  0000 30d6       ori.b   #d6,d0
000030e2  0000 0000       ori.b   #0,d0
000030e6  30e8 0000       move.w  0(a0),(a0)+
000030ea  0000 0000       ori.b   #0,d0
000030ee  30e4            move.w  -(a4),(a0)+
000030f0  0000 0000       ori.b   #0,d0
000030f4  30f6 0000       move.w  0(a6,d0.w*1),(a0)+
000030f8  0000 0000       ori.b   #0,d0
000030fc  30f2 0000       move.w  0(a2,d0.w*1),(a0)+
00003100  0000 0000       ori.b   #0,d0
00003104  .... ....       [1 more]
-------------------------------
00003108  0200 00fc       andi.b  #fc,d0
0000310c  3522            move.w  -(a2),-(a2)
0000310e  0000 30d6       ori.b   #d6,d0
00003112  00fc            
00003114  37b0 0000 0000  move.w  0(a0,d0.w*1),0(a3,d0.w*1)
0000311a  0000 0000       ori.b   #0,d0
0000311e  00df            
00003120  f0a0            f-line
00003122  0000 0000       ori.b   #0,d0
00003126  .... ....       [2 more]
-------------------------------
0000312e  3130 0000       move.w  0(a0,d0.w*1),-(a0)
00003132  0000 0000       ori.b   #0,d0
00003136  312c 0000       move.w  0(a4),-(a0)
0000313a  0000 313e       ori.b   #3e,d0
0000313e  0000 0000       ori.b   #0,d0
00003142  0000 313a       ori.b   #3a,d0
00003146  0000 0000       ori.b   #0,d0
0000314a  .... ....       [1 more]
-------------------------------
0000314e  0000 0200       ori.b   #0,d0
00003152  00fc            
00003154  3522            move.w  -(a2),-(a2)
00003156  0000 3116       ori.b   #16,d0
0000315a  00fc            
0000315c  35e4 0000       move.w  -(a4),315e(pc)
00003160  304c            movea.w a4,a0
00003162  0000 3100       ori.b   #0,d0
00003166  0000 30da       ori.b   #da,d0
0000316a  0000 0000       ori.b   #0,d0
0000316e  .... ....       [2 more]
-------------------------------
00003176  30b6 0000       move.w  0(a6,d0.w*1),(a0)
0000317a  30be            move.w  ???
0000317c  0001 0080       ori.b   #80,d1
00003180  0007 0000       ori.b   #0,d7
00003184  0000 0000       ori.b   #0,d0
00003188  0000 00df       ori.b   #df,d0
0000318c  f0b0            f-line
0000318e  0000 0000       ori.b   #0,d0
00003192  .... ....       [2 more]
-------------------------------
0000319a  319c 0000       move.w  (a4)+,0(a0,d0.w*1)
0000319e  0000 0000       ori.b   #0,d0
000031a2  3198 0000       move.w  (a0)+,0(a0,d0.w*1)
000031a6  0000 31aa       ori.b   #aa,d0
000031aa  0000 0000       ori.b   #0,d0
000031ae  0000 31a6       ori.b   #a6,d0
000031b2  0000 0000       ori.b   #0,d0
000031b6  .... ....       [1 more]
-------------------------------
000031ba  0000 0200       ori.b   #0,d0
000031be  00fc            
000031c0  3522            move.w  -(a2),-(a2)
000031c2  0000 3182       ori.b   #82,d0
000031c6  00fc            
000031c8  35e4 0000       move.w  -(a4),31ca(pc)
000031cc  304c            movea.w a4,a0
000031ce  0000 3100       ori.b   #0,d0
000031d2  0000 30da       ori.b   #da,d0
000031d6  0000 0000       ori.b   #0,d0
000031da  .... ....       [2 more]
-------------------------------
000031e2  30b8 0000       move.w  0,(a0)
000031e6  30c0            move.w  d0,(a0)+
000031e8  0002 0100       ori.b   #0,d2
000031ec  0108 0000       movep.w 0(a0),d0
000031f0  0000 0000       ori.b   #0,d0
000031f4  0000 00df       ori.b   #df,d0
000031f8  f0c0            f-line
000031fa  0000 0000       ori.b   #0,d0
000031fe  .... ....       [2 more]
-------------------------------
00003206  3208            move.w  a0,d1
00003208  0000 0000       ori.b   #0,d0
0000320c  0000 3204       ori.b   #4,d0
00003210  0000 0000       ori.b   #0,d0
00003214  3216            move.w  (a6),d1
00003216  0000 0000       ori.b   #0,d0
0000321a  0000 3212       ori.b   #12,d0
0000321e  0000 0000       ori.b   #0,d0
00003222  .... ....       [1 more]
-------------------------------
00003226  0000 0200       ori.b   #0,d0
0000322a  00fc            
0000322c  3522            move.w  -(a2),-(a2)
0000322e  0000 31ee       ori.b   #ee,d0
00003232  00fc            
00003234  35e4 0000       move.w  -(a4),3236(pc)
00003238  304c            movea.w a4,a0
0000323a  0000 3100       ori.b   #0,d0
0000323e  0000 30da       ori.b   #da,d0
00003242  0000 0000       ori.b   #0,d0
00003246  .... ....       [2 more]
-------------------------------
0000324e  30ba 0000       move.w  3250(pc),(a0)
00003252  30c2            move.w  d2,(a0)+
00003254  0004 0200       ori.b   #0,d4
00003258  0209 0000       andi.b  #0,a1
0000325c  0000 0000       ori.b   #0,d0
00003260  0000 00df       ori.b   #df,d0
00003264  f0d0            f-line
00003266  0000 0000       ori.b   #0,d0
0000326a  .... ....       [2 more]
-------------------------------
00003272  3274 0000       movea.w 0(a4,d0.w*1),a1
00003276  0000 0000       ori.b   #0,d0
0000327a  3270 0000       movea.w 0(a0,d0.w*1),a1
0000327e  0000 3282       ori.b   #82,d0
00003282  0000 0000       ori.b   #0,d0
00003286  0000 327e       ori.b   #7e,d0
0000328a  0000 0000       ori.b   #0,d0
0000328e  .... ....       [1 more]
-------------------------------
00003292  0000 0200       ori.b   #0,d0
00003296  00fc            
00003298  3522            move.w  -(a2),-(a2)
0000329a  0000 325a       ori.b   #5a,d0
0000329e  00fc            
000032a0  35e4 0000       move.w  -(a4),32a2(pc)
000032a4  304c            movea.w a4,a0
000032a6  0000 3100       ori.b   #0,d0
000032aa  0000 30da       ori.b   #da,d0
000032ae  0000 0000       ori.b   #0,d0
000032b2  .... ....       [2 more]
-------------------------------
000032ba  30bc 0000       move.w  #0,(a0)
000032be  30c4            move.w  d4,(a0)+
000032c0  0008 0400       ori.b   #0,a0
000032c4  030a 0000       movep.w 0(a2),d1
000032c8  4ef9 00fe 4d7c  jmp     fe4d7c
000032ce  4ef9 00fe 4cb8  jmp     fe4cb8
000032d4  4ef9 00fe 4e50  jmp     fe4e50
000032da  4ef9 00fe 5d0a  jmp     fe5d0a
000032e0  4ef9 00fe 4e52  jmp     fe4e52
000032e6  4ef9 00fe 5d16  jmp     fe5d16
000032ec  0000 4628       ori.b   #28,d0
000032f0  0000 304c       ori.b   #4c,d0
000032f4  0300            btst.l  d1,d0
000032f6  00fe            
000032f8  4c40 0400       divu.l  d0,d0:d0
000032fc  0024 1232       ori.b   #32,-(a4)
00003300  0022 0001       ori.b   #1,-(a2)
00003304  0000 0000       ori.b   #0,d0
00003308  d0c0            adda.w  d0,a0
0000330a  0000 0001       ori.b   #1,d0
0000330e  0000 0000       ori.b   #0,d0
00003312  0000 0676       ori.b   #76,d0
00003316  00fe            
00003318  5c9e            addq.l  #6,(a6)+
0000331a  00fe            
0000331c  5ce2            sge.b   -(a2)
0000331e  0011 0000       ori.b   #0,(a1)
00003322  0000 0000       ori.b   #0,d0
00003326  0000 0400       ori.b   #0,d0
0000332a  00fe            
0000332c  4c40 001f       divul.l d0,d7:d0
00003330  0000 3342       ori.b   #42,d0
00003334  0000 3338       ori.b   #38,d0
00003338  0000 0000       ori.b   #0,d0
0000333c  0000 3334       ori.b   #34,d0
00003340  0000 0000       ori.b   #0,d0
00003344  621e            bhi.b   3364
00003346  0000 081a       ori.b   #1a,d0
0000334a  0114            btst.b  d0,(a4)
0000334c  00fe            
0000334e  4c40 0004       divul.l d0,d4:d0
00003352  00ff            
00003354  c000            and.b   d0,d0
00003356  ffff            f-line
00003358  c000            and.b   d0,d0
0000335a  0000 0000       ori.b   #0,d0
0000335e  .... ....       [1 more]
-------------------------------
00003362  0000 8000       ori.b   #0,d0
00003366  0000 0000       ori.b   #0,d0
0000336a  0000 00fc       ori.b   #fc,d0
0000336e  003f 0000       move.l  0(a0,d0.w*1),???
00003372  0000 00fc       ori.b   #fc,d0
00003376  003f 0000       move.l  0(a0,d0.w*1),???
0000337a  4348            ???
0000337c  0000 339e       ori.b   #9e,d0
00003380  0000 439e       ori.b   #9e,d0
00003384  0000 0000       ori.b   #0,d0
00003388  .... ....       [5 more]
-------------------------------
0000339c  0000 a6a6       ori.b   #a6,d0
000033a0  a6a6            a-line
000033a2  a6a6            a-line
000033a4  a6a6            a-line
000033a6  a6a6            a-line
000033a8  a6a6            a-line
000033aa  a6a6            a-line
000033ac  a6a6            a-line
000033ae  a6a6            a-line
000033b0  a6a6            a-line
000033b2  a6a6            a-line
000033b4  a6a6            a-line
000033b6  a6a6            a-line
000033b8  a6a6            a-line
000033ba  a6a6            a-line
000033bc  a6a6            a-line
000033be  a6a6            a-line
000033c0  a6a6            a-line
000033c2  a6a6            a-line
000033c4  a6a6            a-line
000033c6  a6a6            a-line
000033c8  a6a6            a-line
000033ca  a6a6            a-line
000033cc  a6a6            a-line
000033ce  a6a6            a-line
000033d0  a6a6            a-line
000033d2  a6a6            a-line
000033d4  a6a6            a-line
000033d6  a6a6            a-line
000033d8  a6a6            a-line
000033da  a6a6            a-line
000033dc  a6a6            a-line
000033de  a6a6            a-line
000033e0  a6a6            a-line
000033e2  a6a6            a-line
000033e4  a6a6            a-line
000033e6  a6a6            a-line
000033e8  a6a6            a-line
000033ea  a6a6            a-line
000033ec  a6a6            a-line
000033ee  a6a6            a-line
000033f0  a6a6            a-line
000033f2  a6a6            a-line
000033f4  a6a6            a-line
000033f6  a6a6            a-line
000033f8  a6a6            a-line
000033fa  a6a6            a-line
000033fc  a6a6            a-line
000033fe  a6a6            a-line
00003400  a6a6            a-line
00003402  a6a6            a-line
00003404  a6a6            a-line
00003406  a6a6            a-line
00003408  a6a6            a-line
0000340a  a6a6            a-line
0000340c  a6a6            a-line
0000340e  a6a6            a-line
00003410  a6a6            a-line
00003412  a6a6            a-line
00003414  a6a6            a-line
00003416  a6a6            a-line
00003418  a6a6            a-line
0000341a  a6a6            a-line
0000341c  a6a6            a-line
0000341e  a6a6            a-line
00003420  a6a6            a-line
00003422  a6a6            a-line
00003424  a6a6            a-line
00003426  a6a6            a-line
00003428  a6a6            a-line
0000342a  a6a6            a-line
0000342c  a6a6            a-line
0000342e  a6a6            a-line
00003430  a6a6            a-line
00003432  a6a6            a-line
00003434  a6a6            a-line
00003436  a6a6            a-line
00003438  a6a6            a-line
0000343a  a6a6            a-line
0000343c  a6a6            a-line
0000343e  a6a6            a-line
00003440  a6a6            a-line
00003442  a6a6            a-line
00003444  a6a6            a-line
00003446  a6a6            a-line
00003448  a6a6            a-line
0000344a  a6a6            a-line
0000344c  a6a6            a-line
0000344e  a6a6            a-line
00003450  a6a6            a-line
00003452  a6a6            a-line
00003454  a6a6            a-line
00003456  a6a6            a-line
00003458  a6a6            a-line
0000345a  a6a6            a-line
0000345c  a6a6            a-line
0000345e  a6a6            a-line
00003460  a6a6            a-line
00003462  a6a6            a-line
00003464  a6a6            a-line
00003466  a6a6            a-line
00003468  a6a6            a-line
0000346a  a6a6            a-line
0000346c  a6a6            a-line
0000346e  a6a6            a-line
00003470  a6a6            a-line
00003472  a6a6            a-line
00003474  a6a6            a-line
00003476  a6a6            a-line
00003478  a6a6            a-line
0000347a  a6a6            a-line
0000347c  a6a6            a-line
0000347e  a6a6            a-line
00003480  a6a6            a-line
00003482  a6a6            a-line
00003484  a6a6            a-line
00003486  a6a6            a-line
00003488  a6a6            a-line
0000348a  a6a6            a-line
0000348c  a6a6            a-line
0000348e  a6a6            a-line
00003490  a6a6            a-line
00003492  a6a6            a-line
00003494  a6a6            a-line
00003496  a6a6            a-line
00003498  a6a6            a-line
0000349a  a6a6            a-line
0000349c  a6a6            a-line
0000349e  a6a6            a-line
000034a0  a6a6            a-line
000034a2  a6a6            a-line
000034a4  a6a6            a-line
000034a6  a6a6            a-line
000034a8  a6a6            a-line
000034aa  a6a6            a-line
000034ac  a6a6            a-line
000034ae  a6a6            a-line
000034b0  a6a6            a-line
000034b2  a6a6            a-line
000034b4  a6a6            a-line
000034b6  a6a6            a-line
000034b8  a6a6            a-line
000034ba  a6a6            a-line
000034bc  a6a6            a-line
000034be  a6a6            a-line
000034c0  a6a6            a-line
000034c2  a6a6            a-line
000034c4  a6a6            a-line
000034c6  a6a6            a-line
000034c8  a6a6            a-line
000034ca  a6a6            a-line
000034cc  a6a6            a-line
000034ce  a6a6            a-line
000034d0  a6a6            a-line
000034d2  a6a6            a-line
000034d4  a6a6            a-line
000034d6  a6a6            a-line
000034d8  a6a6            a-line
000034da  a6a6            a-line
000034dc  a6a6            a-line
000034de  a6a6            a-line
000034e0  a6a6            a-line
000034e2  a6a6            a-line
000034e4  a6a6            a-line
000034e6  a6a6            a-line
000034e8  a6a6            a-line
000034ea  a6a6            a-line
000034ec  a6a6            a-line
000034ee  a6a6            a-line
000034f0  a6a6            a-line
000034f2  a6a6            a-line
000034f4  a6a6            a-line
000034f6  a6a6            a-line
000034f8  a6a6            a-line
000034fa  a6a6            a-line
000034fc  a6a6            a-line
000034fe  a6a6            a-line
00003500  a6a6            a-line
00003502  a6a6            a-line
00003504  a6a6            a-line
00003506  a6a6            a-line
00003508  a6a6            a-line
0000350a  a6a6            a-line
0000350c  a6a6            a-line
0000350e  a6a6            a-line
00003510  a6a6            a-line
00003512  a6a6            a-line
00003514  a6a6            a-line
00003516  a6a6            a-line
00003518  a6a6            a-line
0000351a  a6a6            a-line
0000351c  a6a6            a-line
0000351e  a6a6            a-line
00003520  a6a6            a-line
00003522  a6a6            a-line
00003524  a6a6            a-line
00003526  a6a6            a-line
00003528  a6a6            a-line
0000352a  a6a6            a-line
0000352c  a6a6            a-line
0000352e  a6a6            a-line
00003530  a6a6            a-line
00003532  a6a6            a-line
00003534  a6a6            a-line
00003536  a6a6            a-line
00003538  a6a6            a-line
0000353a  a6a6            a-line
0000353c  a6a6            a-line
0000353e  a6a6            a-line
00003540  a6a6            a-line
00003542  a6a6            a-line
00003544  a6a6            a-line
00003546  a6a6            a-line
00003548  a6a6            a-line
0000354a  a6a6            a-line
0000354c  a6a6            a-line
0000354e  a6a6            a-line
00003550  a6a6            a-line
00003552  a6a6            a-line
00003554  a6a6            a-line
00003556  a6a6            a-line
00003558  a6a6            a-line
0000355a  a6a6            a-line
0000355c  a6a6            a-line
0000355e  a6a6            a-line
00003560  a6a6            a-line
00003562  a6a6            a-line
00003564  a6a6            a-line
00003566  a6a6            a-line
00003568  a6a6            a-line
0000356a  a6a6            a-line
0000356c  a6a6            a-line
0000356e  a6a6            a-line
00003570  a6a6            a-line
00003572  a6a6            a-line
00003574  a6a6            a-line
00003576  a6a6            a-line
00003578  a6a6            a-line
0000357a  a6a6            a-line
0000357c  a6a6            a-line
0000357e  a6a6            a-line
00003580  a6a6            a-line
00003582  a6a6            a-line
00003584  a6a6            a-line
00003586  a6a6            a-line
00003588  a6a6            a-line
0000358a  a6a6            a-line
0000358c  a6a6            a-line
0000358e  a6a6            a-line
00003590  a6a6            a-line
00003592  a6a6            a-line
00003594  a6a6            a-line
00003596  a6a6            a-line
00003598  a6a6            a-line
0000359a  a6a6            a-line
0000359c  a6a6            a-line
0000359e  a6a6            a-line
000035a0  a6a6            a-line
000035a2  a6a6            a-line
000035a4  a6a6            a-line
000035a6  a6a6            a-line
000035a8  a6a6            a-line
000035aa  a6a6            a-line
000035ac  a6a6            a-line
000035ae  a6a6            a-line
000035b0  a6a6            a-line
000035b2  a6a6            a-line
000035b4  a6a6            a-line
000035b6  a6a6            a-line
000035b8  a6a6            a-line
000035ba  a6a6            a-line
000035bc  a6a6            a-line
000035be  a6a6            a-line
000035c0  a6a6            a-line
000035c2  a6a6            a-line
000035c4  a6a6            a-line
000035c6  a6a6            a-line
000035c8  a6a6            a-line
000035ca  a6a6            a-line
000035cc  a6a6            a-line
000035ce  a6a6            a-line
000035d0  a6a6            a-line
000035d2  a6a6            a-line
000035d4  a6a6            a-line
000035d6  a6a6            a-line
000035d8  a6a6            a-line
000035da  a6a6            a-line
000035dc  a6a6            a-line
000035de  a6a6            a-line
000035e0  a6a6            a-line
000035e2  a6a6            a-line
000035e4  a6a6            a-line
000035e6  a6a6            a-line
000035e8  a6a6            a-line
000035ea  a6a6            a-line
000035ec  a6a6            a-line
000035ee  a6a6            a-line
000035f0  a6a6            a-line
000035f2  a6a6            a-line
000035f4  a6a6            a-line
000035f6  a6a6            a-line
000035f8  a6a6            a-line
000035fa  a6a6            a-line
000035fc  a6a6            a-line
000035fe  a6a6            a-line
00003600  a6a6            a-line
00003602  a6a6            a-line
00003604  a6a6            a-line
00003606  a6a6            a-line
00003608  a6a6            a-line
0000360a  a6a6            a-line
0000360c  a6a6            a-line
0000360e  a6a6            a-line
00003610  a6a6            a-line
00003612  a6a6            a-line
00003614  a6a6            a-line
00003616  a6a6            a-line
00003618  a6a6            a-line
0000361a  a6a6            a-line
0000361c  a6a6            a-line
0000361e  a6a6            a-line
00003620  a6a6            a-line
00003622  a6a6            a-line
00003624  a6a6            a-line
00003626  a6a6            a-line
00003628  a6a6            a-line
0000362a  a6a6            a-line
0000362c  a6a6            a-line
0000362e  a6a6            a-line
00003630  a6a6            a-line
00003632  a6a6            a-line
00003634  a6a6            a-line
00003636  a6a6            a-line
00003638  a6a6            a-line
0000363a  a6a6            a-line
0000363c  a6a6            a-line
0000363e  a6a6            a-line
00003640  a6a6            a-line
00003642  a6a6            a-line
00003644  a6a6            a-line
00003646  a6a6            a-line
00003648  a6a6            a-line
0000364a  a6a6            a-line
0000364c  a6a6            a-line
0000364e  a6a6            a-line
00003650  a6a6            a-line
00003652  a6a6            a-line
00003654  a6a6            a-line
00003656  a6a6            a-line
00003658  a6a6            a-line
0000365a  a6a6            a-line
0000365c  a6a6            a-line
0000365e  a6a6            a-line
00003660  a6a6            a-line
00003662  a6a6            a-line
00003664  a6a6            a-line
00003666  a6a6            a-line
00003668  a6a6            a-line
0000366a  a6a6            a-line
0000366c  a6a6            a-line
0000366e  a6a6            a-line
00003670  a6a6            a-line
00003672  a6a6            a-line
00003674  a6a6            a-line
00003676  a6a6            a-line
00003678  a6a6            a-line
0000367a  a6a6            a-line
0000367c  a6a6            a-line
0000367e  a6a6            a-line
00003680  a6a6            a-line
00003682  a6a6            a-line
00003684  a6a6            a-line
00003686  a6a6            a-line
00003688  a6a6            a-line
0000368a  a6a6            a-line
0000368c  a6a6            a-line
0000368e  a6a6            a-line
00003690  a6a6            a-line
00003692  a6a6            a-line
00003694  a6a6            a-line
00003696  a6a6            a-line
00003698  a6a6            a-line
0000369a  a6a6            a-line
0000369c  a6a6            a-line
0000369e  a6a6            a-line
000036a0  a6a6            a-line
000036a2  a6a6            a-line
000036a4  a6a6            a-line
000036a6  a6a6            a-line
000036a8  a6a6            a-line
000036aa  a6a6            a-line
000036ac  a6a6            a-line
000036ae  a6a6            a-line
000036b0  a6a6            a-line
000036b2  a6a6            a-line
000036b4  a6a6            a-line
000036b6  a6a6            a-line
000036b8  a6a6            a-line
000036ba  a6a6            a-line
000036bc  a6a6            a-line
000036be  a6a6            a-line
000036c0  a6a6            a-line
000036c2  a6a6            a-line
000036c4  a6a6            a-line
000036c6  a6a6            a-line
000036c8  a6a6            a-line
000036ca  a6a6            a-line
000036cc  a6a6            a-line
000036ce  a6a6            a-line
000036d0  a6a6            a-line
000036d2  a6a6            a-line
000036d4  a6a6            a-line
000036d6  a6a6            a-line
000036d8  a6a6            a-line
000036da  a6a6            a-line
000036dc  a6a6            a-line
000036de  a6a6            a-line
000036e0  a6a6            a-line
000036e2  a6a6            a-line
000036e4  a6a6            a-line
000036e6  a6a6            a-line
000036e8  a6a6            a-line
000036ea  a6a6            a-line
000036ec  a6a6            a-line
000036ee  a6a6            a-line
000036f0  a6a6            a-line
000036f2  a6a6            a-line
000036f4  a6a6            a-line
000036f6  a6a6            a-line
000036f8  a6a6            a-line
000036fa  a6a6            a-line
000036fc  a6a6            a-line
000036fe  a6a6            a-line
00003700  a6a6            a-line
00003702  a6a6            a-line
00003704  a6a6            a-line
00003706  a6a6            a-line
00003708  a6a6            a-line
0000370a  a6a6            a-line
0000370c  a6a6            a-line
0000370e  a6a6            a-line
00003710  a6a6            a-line
00003712  a6a6            a-line
00003714  a6a6            a-line
00003716  a6a6            a-line
00003718  a6a6            a-line
0000371a  a6a6            a-line
0000371c  a6a6            a-line
0000371e  a6a6            a-line
00003720  a6a6            a-line
00003722  a6a6            a-line
00003724  a6a6            a-line
00003726  a6a6            a-line
00003728  a6a6            a-line
0000372a  a6a6            a-line
0000372c  a6a6            a-line
0000372e  a6a6            a-line
00003730  a6a6            a-line
00003732  a6a6            a-line
00003734  a6a6            a-line
00003736  a6a6            a-line
00003738  a6a6            a-line
0000373a  a6a6            a-line
0000373c  a6a6            a-line
0000373e  a6a6            a-line
00003740  a6a6            a-line
00003742  a6a6            a-line
00003744  a6a6            a-line
00003746  a6a6            a-line
00003748  a6a6            a-line
0000374a  a6a6            a-line
0000374c  a6a6            a-line
0000374e  a6a6            a-line
00003750  a6a6            a-line
00003752  a6a6            a-line
00003754  a6a6            a-line
00003756  a6a6            a-line
00003758  a6a6            a-line
0000375a  a6a6            a-line
0000375c  a6a6            a-line
0000375e  a6a6            a-line
00003760  a6a6            a-line
00003762  a6a6            a-line
00003764  a6a6            a-line
00003766  a6a6            a-line
00003768  a6a6            a-line
0000376a  a6a6            a-line
0000376c  a6a6            a-line
0000376e  a6a6            a-line
00003770  a6a6            a-line
00003772  a6a6            a-line
00003774  a6a6            a-line
00003776  a6a6            a-line
00003778  a6a6            a-line
0000377a  a6a6            a-line
0000377c  a6a6            a-line
0000377e  a6a6            a-line
00003780  a6a6            a-line
00003782  a6a6            a-line
00003784  a6a6            a-line
00003786  a6a6            a-line
00003788  a6a6            a-line
0000378a  a6a6            a-line
0000378c  a6a6            a-line
0000378e  a6a6            a-line
00003790  a6a6            a-line
00003792  a6a6            a-line
00003794  a6a6            a-line
00003796  a6a6            a-line
00003798  a6a6            a-line
0000379a  a6a6            a-line
0000379c  a6a6            a-line
0000379e  a6a6            a-line
000037a0  a6a6            a-line
000037a2  a6a6            a-line
000037a4  a6a6            a-line
000037a6  a6a6            a-line
000037a8  a6a6            a-line
000037aa  a6a6            a-line
000037ac  a6a6            a-line
000037ae  a6a6            a-line
000037b0  a6a6            a-line
000037b2  a6a6            a-line
000037b4  a6a6            a-line
000037b6  a6a6            a-line
000037b8  a6a6            a-line
000037ba  a6a6            a-line
000037bc  a6a6            a-line
000037be  a6a6            a-line
000037c0  a6a6            a-line
000037c2  a6a6            a-line
000037c4  a6a6            a-line
000037c6  a6a6            a-line
000037c8  a6a6            a-line
000037ca  a6a6            a-line
000037cc  a6a6            a-line
000037ce  a6a6            a-line
000037d0  a6a6            a-line
000037d2  a6a6            a-line
000037d4  a6a6            a-line
000037d6  a6a6            a-line
000037d8  a6a6            a-line
000037da  a6a6            a-line
000037dc  a6a6            a-line
000037de  a6a6            a-line
000037e0  a6a6            a-line
000037e2  a6a6            a-line
000037e4  a6a6            a-line
000037e6  a6a6            a-line
000037e8  a6a6            a-line
000037ea  a6a6            a-line
000037ec  a6a6            a-line
000037ee  a6a6            a-line
000037f0  a6a6            a-line
000037f2  a6a6            a-line
000037f4  a6a6            a-line
000037f6  a6a6            a-line
000037f8  a6a6            a-line
000037fa  a6a6            a-line
000037fc  a6a6            a-line
000037fe  a6a6            a-line
00003800  a6a6            a-line
00003802  a6a6            a-line
00003804  a6a6            a-line
00003806  a6a6            a-line
00003808  a6a6            a-line
0000380a  a6a6            a-line
0000380c  a6a6            a-line
0000380e  a6a6            a-line
00003810  a6a6            a-line
00003812  a6a6            a-line
00003814  a6a6            a-line
00003816  a6a6            a-line
00003818  a6a6            a-line
0000381a  a6a6            a-line
0000381c  a6a6            a-line
0000381e  a6a6            a-line
00003820  a6a6            a-line
00003822  a6a6            a-line
00003824  a6a6            a-line
00003826  a6a6            a-line
00003828  a6a6            a-line
0000382a  a6a6            a-line
0000382c  a6a6            a-line
0000382e  a6a6            a-line
00003830  a6a6            a-line
00003832  a6a6            a-line
00003834  a6a6            a-line
00003836  a6a6            a-line
00003838  a6a6            a-line
0000383a  a6a6            a-line
0000383c  a6a6            a-line
0000383e  a6a6            a-line
00003840  a6a6            a-line
00003842  a6a6            a-line
00003844  a6a6            a-line
00003846  a6a6            a-line
00003848  a6a6            a-line
0000384a  a6a6            a-line
0000384c  a6a6            a-line
0000384e  a6a6            a-line
00003850  a6a6            a-line
00003852  a6a6            a-line
00003854  a6a6            a-line
00003856  a6a6            a-line
00003858  a6a6            a-line
0000385a  a6a6            a-line
0000385c  a6a6            a-line
0000385e  a6a6            a-line
00003860  a6a6            a-line
00003862  a6a6            a-line
00003864  a6a6            a-line
00003866  a6a6            a-line
00003868  a6a6            a-line
0000386a  a6a6            a-line
0000386c  a6a6            a-line
0000386e  a6a6            a-line
00003870  a6a6            a-line
00003872  a6a6            a-line
00003874  a6a6            a-line
00003876  a6a6            a-line
00003878  a6a6            a-line
0000387a  a6a6            a-line
0000387c  a6a6            a-line
0000387e  a6a6            a-line
00003880  a6a6            a-line
00003882  a6a6            a-line
00003884  a6a6            a-line
00003886  a6a6            a-line
00003888  a6a6            a-line
0000388a  a6a6            a-line
0000388c  a6a6            a-line
0000388e  a6a6            a-line
00003890  a6a6            a-line
00003892  a6a6            a-line
00003894  a6a6            a-line
00003896  a6a6            a-line
00003898  a6a6            a-line
0000389a  a6a6            a-line
0000389c  a6a6            a-line
0000389e  a6a6            a-line
000038a0  a6a6            a-line
000038a2  a6a6            a-line
000038a4  a6a6            a-line
000038a6  a6a6            a-line
000038a8  a6a6            a-line
000038aa  a6a6            a-line
000038ac  a6a6            a-line
000038ae  a6a6            a-line
000038b0  a6a6            a-line
000038b2  a6a6            a-line
000038b4  a6a6            a-line
000038b6  a6a6            a-line
000038b8  a6a6            a-line
000038ba  a6a6            a-line
000038bc  a6a6            a-line
000038be  a6a6            a-line
000038c0  a6a6            a-line
000038c2  a6a6            a-line
000038c4  a6a6            a-line
000038c6  a6a6            a-line
000038c8  a6a6            a-line
000038ca  a6a6            a-line
000038cc  a6a6            a-line
000038ce  a6a6            a-line
000038d0  a6a6            a-line
000038d2  a6a6            a-line
000038d4  a6a6            a-line
000038d6  a6a6            a-line
000038d8  a6a6            a-line
000038da  a6a6            a-line
000038dc  a6a6            a-line
000038de  a6a6            a-line
000038e0  a6a6            a-line
000038e2  a6a6            a-line
000038e4  a6a6            a-line
000038e6  a6a6            a-line
000038e8  a6a6            a-line
000038ea  a6a6            a-line
000038ec  a6a6            a-line
000038ee  a6a6            a-line
000038f0  a6a6            a-line
000038f2  a6a6            a-line
000038f4  a6a6            a-line
000038f6  a6a6            a-line
000038f8  a6a6            a-line
000038fa  a6a6            a-line
000038fc  a6a6            a-line
000038fe  a6a6            a-line
00003900  a6a6            a-line
00003902  a6a6            a-line
00003904  a6a6            a-line
00003906  a6a6            a-line
00003908  a6a6            a-line
0000390a  a6a6            a-line
0000390c  a6a6            a-line
0000390e  a6a6            a-line
00003910  a6a6            a-line
00003912  a6a6            a-line
00003914  a6a6            a-line
00003916  a6a6            a-line
00003918  a6a6            a-line
0000391a  a6a6            a-line
0000391c  a6a6            a-line
0000391e  a6a6            a-line
00003920  a6a6            a-line
00003922  a6a6            a-line
00003924  a6a6            a-line
00003926  a6a6            a-line
00003928  a6a6            a-line
0000392a  a6a6            a-line
0000392c  a6a6            a-line
0000392e  a6a6            a-line
00003930  a6a6            a-line
00003932  a6a6            a-line
00003934  a6a6            a-line
00003936  a6a6            a-line
00003938  a6a6            a-line
0000393a  a6a6            a-line
0000393c  a6a6            a-line
0000393e  a6a6            a-line
00003940  a6a6            a-line
00003942  a6a6            a-line
00003944  a6a6            a-line
00003946  a6a6            a-line
00003948  a6a6            a-line
0000394a  a6a6            a-line
0000394c  a6a6            a-line
0000394e  a6a6            a-line
00003950  a6a6            a-line
00003952  a6a6            a-line
00003954  a6a6            a-line
00003956  a6a6            a-line
00003958  a6a6            a-line
0000395a  a6a6            a-line
0000395c  a6a6            a-line
0000395e  a6a6            a-line
00003960  a6a6            a-line
00003962  a6a6            a-line
00003964  a6a6            a-line
00003966  a6a6            a-line
00003968  a6a6            a-line
0000396a  a6a6            a-line
0000396c  a6a6            a-line
0000396e  a6a6            a-line
00003970  a6a6            a-line
00003972  a6a6            a-line
00003974  a6a6            a-line
00003976  a6a6            a-line
00003978  a6a6            a-line
0000397a  a6a6            a-line
0000397c  a6a6            a-line
0000397e  a6a6            a-line
00003980  a6a6            a-line
00003982  a6a6            a-line
00003984  a6a6            a-line
00003986  a6a6            a-line
00003988  a6a6            a-line
0000398a  a6a6            a-line
0000398c  a6a6            a-line
0000398e  a6a6            a-line
00003990  a6a6            a-line
00003992  a6a6            a-line
00003994  a6a6            a-line
00003996  a6a6            a-line
00003998  a6a6            a-line
0000399a  a6a6            a-line
0000399c  a6a6            a-line
0000399e  a6a6            a-line
000039a0  a6a6            a-line
000039a2  a6a6            a-line
000039a4  a6a6            a-line
000039a6  a6a6            a-line
000039a8  a6a6            a-line
000039aa  a6a6            a-line
000039ac  a6a6            a-line
000039ae  a6a6            a-line
000039b0  a6a6            a-line
000039b2  a6a6            a-line
000039b4  a6a6            a-line
000039b6  a6a6            a-line
000039b8  a6a6            a-line
000039ba  a6a6            a-line
000039bc  a6a6            a-line
000039be  a6a6            a-line
000039c0  a6a6            a-line
000039c2  a6a6            a-line
000039c4  a6a6            a-line
000039c6  a6a6            a-line
000039c8  a6a6            a-line
000039ca  a6a6            a-line
000039cc  a6a6            a-line
000039ce  a6a6            a-line
000039d0  a6a6            a-line
000039d2  a6a6            a-line
000039d4  a6a6            a-line
000039d6  a6a6            a-line
000039d8  a6a6            a-line
000039da  a6a6            a-line
000039dc  a6a6            a-line
000039de  a6a6            a-line
000039e0  a6a6            a-line
000039e2  a6a6            a-line
000039e4  a6a6            a-line
000039e6  a6a6            a-line
000039e8  a6a6            a-line
000039ea  a6a6            a-line
000039ec  a6a6            a-line
000039ee  a6a6            a-line
000039f0  a6a6            a-line
000039f2  a6a6            a-line
000039f4  a6a6            a-line
000039f6  a6a6            a-line
000039f8  a6a6            a-line
000039fa  a6a6            a-line
000039fc  a6a6            a-line
000039fe  a6a6            a-line
00003a00  a6a6            a-line
00003a02  a6a6            a-line
00003a04  a6a6            a-line
00003a06  a6a6            a-line
00003a08  a6a6            a-line
00003a0a  a6a6            a-line
00003a0c  a6a6            a-line
00003a0e  a6a6            a-line
00003a10  a6a6            a-line
00003a12  a6a6            a-line
00003a14  a6a6            a-line
00003a16  a6a6            a-line
00003a18  a6a6            a-line
00003a1a  a6a6            a-line
00003a1c  a6a6            a-line
00003a1e  a6a6            a-line
00003a20  a6a6            a-line
00003a22  a6a6            a-line
00003a24  a6a6            a-line
00003a26  a6a6            a-line
00003a28  a6a6            a-line
00003a2a  a6a6            a-line
00003a2c  a6a6            a-line
00003a2e  a6a6            a-line
00003a30  a6a6            a-line
00003a32  a6a6            a-line
00003a34  a6a6            a-line
00003a36  a6a6            a-line
00003a38  a6a6            a-line
00003a3a  a6a6            a-line
00003a3c  a6a6            a-line
00003a3e  a6a6            a-line
00003a40  a6a6            a-line
00003a42  a6a6            a-line
00003a44  a6a6            a-line
00003a46  a6a6            a-line
00003a48  a6a6            a-line
00003a4a  a6a6            a-line
00003a4c  a6a6            a-line
00003a4e  a6a6            a-line
00003a50  a6a6            a-line
00003a52  a6a6            a-line
00003a54  a6a6            a-line
00003a56  a6a6            a-line
00003a58  a6a6            a-line
00003a5a  a6a6            a-line
00003a5c  a6a6            a-line
00003a5e  a6a6            a-line
00003a60  a6a6            a-line
00003a62  a6a6            a-line
00003a64  a6a6            a-line
00003a66  a6a6            a-line
00003a68  a6a6            a-line
00003a6a  a6a6            a-line
00003a6c  a6a6            a-line
00003a6e  a6a6            a-line
00003a70  a6a6            a-line
00003a72  a6a6            a-line
00003a74  a6a6            a-line
00003a76  a6a6            a-line
00003a78  a6a6            a-line
00003a7a  a6a6            a-line
00003a7c  a6a6            a-line
00003a7e  a6a6            a-line
00003a80  a6a6            a-line
00003a82  a6a6            a-line
00003a84  a6a6            a-line
00003a86  a6a6            a-line
00003a88  a6a6            a-line
00003a8a  a6a6            a-line
00003a8c  a6a6            a-line
00003a8e  a6a6            a-line
00003a90  a6a6            a-line
00003a92  a6a6            a-line
00003a94  a6a6            a-line
00003a96  a6a6            a-line
00003a98  a6a6            a-line
00003a9a  a6a6            a-line
00003a9c  a6a6            a-line
00003a9e  a6a6            a-line
00003aa0  a6a6            a-line
00003aa2  a6a6            a-line
00003aa4  a6a6            a-line
00003aa6  a6a6            a-line
00003aa8  a6a6            a-line
00003aaa  a6a6            a-line
00003aac  a6a6            a-line
00003aae  a6a6            a-line
00003ab0  a6a6            a-line
00003ab2  a6a6            a-line
00003ab4  a6a6            a-line
00003ab6  a6a6            a-line
00003ab8  a6a6            a-line
00003aba  a6a6            a-line
00003abc  a6a6            a-line
00003abe  a6a6            a-line
00003ac0  a6a6            a-line
00003ac2  a6a6            a-line
00003ac4  a6a6            a-line
00003ac6  a6a6            a-line
00003ac8  a6a6            a-line
00003aca  a6a6            a-line
00003acc  a6a6            a-line
00003ace  a6a6            a-line
00003ad0  a6a6            a-line
00003ad2  a6a6            a-line
00003ad4  a6a6            a-line
00003ad6  a6a6            a-line
00003ad8  a6a6            a-line
00003ada  a6a6            a-line
00003adc  a6a6            a-line
00003ade  a6a6            a-line
00003ae0  a6a6            a-line
00003ae2  a6a6            a-line
00003ae4  a6a6            a-line
00003ae6  a6a6            a-line
00003ae8  a6a6            a-line
00003aea  a6a6            a-line
00003aec  a6a6            a-line
00003aee  a6a6            a-line
00003af0  a6a6            a-line
00003af2  a6a6            a-line
00003af4  a6a6            a-line
00003af6  a6a6            a-line
00003af8  a6a6            a-line
00003afa  a6a6            a-line
00003afc  a6a6            a-line
00003afe  a6a6            a-line
00003b00  a6a6            a-line
00003b02  a6a6            a-line
00003b04  a6a6            a-line
00003b06  a6a6            a-line
00003b08  a6a6            a-line
00003b0a  a6a6            a-line
00003b0c  a6a6            a-line
00003b0e  a6a6            a-line
00003b10  a6a6            a-line
00003b12  a6a6            a-line
00003b14  a6a6            a-line
00003b16  a6a6            a-line
00003b18  a6a6            a-line
00003b1a  a6a6            a-line
00003b1c  a6a6            a-line
00003b1e  a6a6            a-line
00003b20  a6a6            a-line
00003b22  a6a6            a-line
00003b24  a6a6            a-line
00003b26  a6a6            a-line
00003b28  a6a6            a-line
00003b2a  a6a6            a-line
00003b2c  a6a6            a-line
00003b2e  a6a6            a-line
00003b30  a6a6            a-line
00003b32  a6a6            a-line
00003b34  a6a6            a-line
00003b36  a6a6            a-line
00003b38  a6a6            a-line
00003b3a  a6a6            a-line
00003b3c  a6a6            a-line
00003b3e  a6a6            a-line
00003b40  a6a6            a-line
00003b42  a6a6            a-line
00003b44  a6a6            a-line
00003b46  a6a6            a-line
00003b48  a6a6            a-line
00003b4a  a6a6            a-line
00003b4c  a6a6            a-line
00003b4e  a6a6            a-line
00003b50  a6a6            a-line
00003b52  a6a6            a-line
00003b54  a6a6            a-line
00003b56  a6a6            a-line
00003b58  a6a6            a-line
00003b5a  a6a6            a-line
00003b5c  a6a6            a-line
00003b5e  a6a6            a-line
00003b60  a6a6            a-line
00003b62  a6a6            a-line
00003b64  a6a6            a-line
00003b66  a6a6            a-line
00003b68  a6a6            a-line
00003b6a  a6a6            a-line
00003b6c  a6a6            a-line
00003b6e  a6a6            a-line
00003b70  a6a6            a-line
00003b72  a6a6            a-line
00003b74  a6a6            a-line
00003b76  a6a6            a-line
00003b78  a6a6            a-line
00003b7a  a6a6            a-line
00003b7c  a6a6            a-line
00003b7e  a6a6            a-line
00003b80  a6a6            a-line
00003b82  a6a6            a-line
00003b84  a6a6            a-line
00003b86  a6a6            a-line
00003b88  a6a6            a-line
00003b8a  a6a6            a-line
00003b8c  a6a6            a-line
00003b8e  a6a6            a-line
00003b90  a6a6            a-line
00003b92  a6a6            a-line
00003b94  a6a6            a-line
00003b96  a6a6            a-line
00003b98  a6a6            a-line
00003b9a  a6a6            a-line
00003b9c  a6a6            a-line
00003b9e  a6a6            a-line
00003ba0  a6a6            a-line
00003ba2  a6a6            a-line
00003ba4  a6a6            a-line
00003ba6  a6a6            a-line
00003ba8  a6a6            a-line
00003baa  a6a6            a-line
00003bac  a6a6            a-line
00003bae  a6a6            a-line
00003bb0  a6a6            a-line
00003bb2  a6a6            a-line
00003bb4  a6a6            a-line
00003bb6  a6a6            a-line
00003bb8  a6a6            a-line
00003bba  a6a6            a-line
00003bbc  a6a6            a-line
00003bbe  a6a6            a-line
00003bc0  a6a6            a-line
00003bc2  a6a6            a-line
00003bc4  a6a6            a-line
00003bc6  a6a6            a-line
00003bc8  a6a6            a-line
00003bca  a6a6            a-line
00003bcc  a6a6            a-line
00003bce  a6a6            a-line
00003bd0  a6a6            a-line
00003bd2  a6a6            a-line
00003bd4  a6a6            a-line
00003bd6  a6a6            a-line
00003bd8  a6a6            a-line
00003bda  a6a6            a-line
00003bdc  a6a6            a-line
00003bde  a6a6            a-line
00003be0  a6a6            a-line
00003be2  a6a6            a-line
00003be4  a6a6            a-line
00003be6  a6a6            a-line
00003be8  a6a6            a-line
00003bea  a6a6            a-line
00003bec  a6a6            a-line
00003bee  a6a6            a-line
00003bf0  a6a6            a-line
00003bf2  a6a6            a-line
00003bf4  a6a6            a-line
00003bf6  a6a6            a-line
00003bf8  a6a6            a-line
00003bfa  a6a6            a-line
00003bfc  a6a6            a-line
00003bfe  a6a6            a-line
00003c00  a6a6            a-line
00003c02  a6a6            a-line
00003c04  a6a6            a-line
00003c06  a6a6            a-line
00003c08  a6a6            a-line
00003c0a  a6a6            a-line
00003c0c  a6a6            a-line
00003c0e  a6a6            a-line
00003c10  a6a6            a-line
00003c12  a6a6            a-line
00003c14  a6a6            a-line
00003c16  a6a6            a-line
00003c18  a6a6            a-line
00003c1a  a6a6            a-line
00003c1c  a6a6            a-line
00003c1e  a6a6            a-line
00003c20  a6a6            a-line
00003c22  a6a6            a-line
00003c24  a6a6            a-line
00003c26  a6a6            a-line
00003c28  a6a6            a-line
00003c2a  a6a6            a-line
00003c2c  a6a6            a-line
00003c2e  a6a6            a-line
00003c30  a6a6            a-line
00003c32  a6a6            a-line
00003c34  a6a6            a-line
00003c36  a6a6            a-line
00003c38  a6a6            a-line
00003c3a  a6a6            a-line
00003c3c  a6a6            a-line
00003c3e  a6a6            a-line
00003c40  a6a6            a-line
00003c42  a6a6            a-line
00003c44  a6a6            a-line
00003c46  a6a6            a-line
00003c48  a6a6            a-line
00003c4a  a6a6            a-line
00003c4c  a6a6            a-line
00003c4e  a6a6            a-line
00003c50  a6a6            a-line
00003c52  a6a6            a-line
00003c54  a6a6            a-line
00003c56  a6a6            a-line
00003c58  a6a6            a-line
00003c5a  a6a6            a-line
00003c5c  a6a6            a-line
00003c5e  a6a6            a-line
00003c60  a6a6            a-line
00003c62  a6a6            a-line
00003c64  a6a6            a-line
00003c66  a6a6            a-line
00003c68  a6a6            a-line
00003c6a  a6a6            a-line
00003c6c  a6a6            a-line
00003c6e  a6a6            a-line
00003c70  a6a6            a-line
00003c72  a6a6            a-line
00003c74  a6a6            a-line
00003c76  a6a6            a-line
00003c78  a6a6            a-line
00003c7a  a6a6            a-line
00003c7c  a6a6            a-line
00003c7e  a6a6            a-line
00003c80  a6a6            a-line
00003c82  a6a6            a-line
00003c84  a6a6            a-line
00003c86  a6a6            a-line
00003c88  a6a6            a-line
00003c8a  a6a6            a-line
00003c8c  a6a6            a-line
00003c8e  a6a6            a-line
00003c90  a6a6            a-line
00003c92  a6a6            a-line
00003c94  a6a6            a-line
00003c96  a6a6            a-line
00003c98  a6a6            a-line
00003c9a  a6a6            a-line
00003c9c  a6a6            a-line
00003c9e  a6a6            a-line
00003ca0  a6a6            a-line
00003ca2  a6a6            a-line
00003ca4  a6a6            a-line
00003ca6  a6a6            a-line
00003ca8  a6a6            a-line
00003caa  a6a6            a-line
00003cac  a6a6            a-line
00003cae  a6a6            a-line
00003cb0  a6a6            a-line
00003cb2  a6a6            a-line
00003cb4  a6a6            a-line
00003cb6  a6a6            a-line
00003cb8  a6a6            a-line
00003cba  a6a6            a-line
00003cbc  a6a6            a-line
00003cbe  a6a6            a-line
00003cc0  a6a6            a-line
00003cc2  a6a6            a-line
00003cc4  a6a6            a-line
00003cc6  a6a6            a-line
00003cc8  a6a6            a-line
00003cca  a6a6            a-line
00003ccc  a6a6            a-line
00003cce  a6a6            a-line
00003cd0  a6a6            a-line
00003cd2  a6a6            a-line
00003cd4  a6a6            a-line
00003cd6  a6a6            a-line
00003cd8  a6a6            a-line
00003cda  a6a6            a-line
00003cdc  a6a6            a-line
00003cde  a6a6            a-line
00003ce0  a6a6            a-line
00003ce2  a6a6            a-line
00003ce4  a6a6            a-line
00003ce6  a6a6            a-line
00003ce8  a6a6            a-line
00003cea  a6a6            a-line
00003cec  a6a6            a-line
00003cee  a6a6            a-line
00003cf0  a6a6            a-line
00003cf2  a6a6            a-line
00003cf4  a6a6            a-line
00003cf6  a6a6            a-line
00003cf8  a6a6            a-line
00003cfa  a6a6            a-line
00003cfc  a6a6            a-line
00003cfe  a6a6            a-line
00003d00  a6a6            a-line
00003d02  a6a6            a-line
00003d04  a6a6            a-line
00003d06  a6a6            a-line
00003d08  a6a6            a-line
00003d0a  a6a6            a-line
00003d0c  a6a6            a-line
00003d0e  a6a6            a-line
00003d10  a6a6            a-line
00003d12  a6a6            a-line
00003d14  a6a6            a-line
00003d16  a6a6            a-line
00003d18  a6a6            a-line
00003d1a  a6a6            a-line
00003d1c  a6a6            a-line
00003d1e  a6a6            a-line
00003d20  a6a6            a-line
00003d22  a6a6            a-line
00003d24  a6a6            a-line
00003d26  a6a6            a-line
00003d28  a6a6            a-line
00003d2a  a6a6            a-line
00003d2c  a6a6            a-line
00003d2e  a6a6            a-line
00003d30  a6a6            a-line
00003d32  a6a6            a-line
00003d34  a6a6            a-line
00003d36  a6a6            a-line
00003d38  a6a6            a-line
00003d3a  a6a6            a-line
00003d3c  a6a6            a-line
00003d3e  a6a6            a-line
00003d40  a6a6            a-line
00003d42  a6a6            a-line
00003d44  a6a6            a-line
00003d46  a6a6            a-line
00003d48  a6a6            a-line
00003d4a  a6a6            a-line
00003d4c  a6a6            a-line
00003d4e  a6a6            a-line
00003d50  a6a6            a-line
00003d52  a6a6            a-line
00003d54  a6a6            a-line
00003d56  a6a6            a-line
00003d58  a6a6            a-line
00003d5a  a6a6            a-line
00003d5c  a6a6            a-line
00003d5e  a6a6            a-line
00003d60  a6a6            a-line
00003d62  a6a6            a-line
00003d64  a6a6            a-line
00003d66  a6a6            a-line
00003d68  a6a6            a-line
00003d6a  a6a6            a-line
00003d6c  a6a6            a-line
00003d6e  a6a6            a-line
00003d70  a6a6            a-line
00003d72  a6a6            a-line
00003d74  a6a6            a-line
00003d76  a6a6            a-line
00003d78  a6a6            a-line
00003d7a  a6a6            a-line
00003d7c  a6a6            a-line
00003d7e  a6a6            a-line
00003d80  a6a6            a-line
00003d82  a6a6            a-line
00003d84  a6a6            a-line
00003d86  a6a6            a-line
00003d88  a6a6            a-line
00003d8a  a6a6            a-line
00003d8c  a6a6            a-line
00003d8e  a6a6            a-line
00003d90  a6a6            a-line
00003d92  a6a6            a-line
00003d94  a6a6            a-line
00003d96  a6a6            a-line
00003d98  a6a6            a-line
00003d9a  a6a6            a-line
00003d9c  a6a6            a-line
00003d9e  a6a6            a-line
00003da0  a6a6            a-line
00003da2  a6a6            a-line
00003da4  a6a6            a-line
00003da6  a6a6            a-line
00003da8  a6a6            a-line
00003daa  a6a6            a-line
00003dac  a6a6            a-line
00003dae  a6a6            a-line
00003db0  a6a6            a-line
00003db2  a6a6            a-line
00003db4  a6a6            a-line
00003db6  a6a6            a-line
00003db8  a6a6            a-line
00003dba  a6a6            a-line
00003dbc  a6a6            a-line
00003dbe  a6a6            a-line
00003dc0  a6a6            a-line
00003dc2  a6a6            a-line
00003dc4  a6a6            a-line
00003dc6  a6a6            a-line
00003dc8  a6a6            a-line
00003dca  a6a6            a-line
00003dcc  a6a6            a-line
00003dce  a6a6            a-line
00003dd0  a6a6            a-line
00003dd2  a6a6            a-line
00003dd4  a6a6            a-line
00003dd6  a6a6            a-line
00003dd8  a6a6            a-line
00003dda  a6a6            a-line
00003ddc  a6a6            a-line
00003dde  a6a6            a-line
00003de0  a6a6            a-line
00003de2  a6a6            a-line
00003de4  a6a6            a-line
00003de6  a6a6            a-line
00003de8  a6a6            a-line
00003dea  a6a6            a-line
00003dec  a6a6            a-line
00003dee  a6a6            a-line
00003df0  a6a6            a-line
00003df2  a6a6            a-line
00003df4  a6a6            a-line
00003df6  a6a6            a-line
00003df8  a6a6            a-line
00003dfa  a6a6            a-line
00003dfc  a6a6            a-line
00003dfe  a6a6            a-line
00003e00  a6a6            a-line
00003e02  a6a6            a-line
00003e04  a6a6            a-line
00003e06  a6a6            a-line
00003e08  a6a6            a-line
00003e0a  a6a6            a-line
00003e0c  a6a6            a-line
00003e0e  a6a6            a-line
00003e10  a6a6            a-line
00003e12  a6a6            a-line
00003e14  a6a6            a-line
00003e16  a6a6            a-line
00003e18  a6a6            a-line
00003e1a  a6a6            a-line
00003e1c  a6a6            a-line
00003e1e  a6a6            a-line
00003e20  a6a6            a-line
00003e22  a6a6            a-line
00003e24  a6a6            a-line
00003e26  a6a6            a-line
00003e28  a6a6            a-line
00003e2a  a6a6            a-line
00003e2c  a6a6            a-line
00003e2e  a6a6            a-line
00003e30  a6a6            a-line
00003e32  a6a6            a-line
00003e34  a6a6            a-line
00003e36  a6a6            a-line
00003e38  a6a6            a-line
00003e3a  a6a6            a-line
00003e3c  a6a6            a-line
00003e3e  a6a6            a-line
00003e40  a6a6            a-line
00003e42  a6a6            a-line
00003e44  a6a6            a-line
00003e46  a6a6            a-line
00003e48  a6a6            a-line
00003e4a  a6a6            a-line
00003e4c  a6a6            a-line
00003e4e  a6a6            a-line
00003e50  a6a6            a-line
00003e52  a6a6            a-line
00003e54  a6a6            a-line
00003e56  a6a6            a-line
00003e58  a6a6            a-line
00003e5a  a6a6            a-line
00003e5c  a6a6            a-line
00003e5e  a6a6            a-line
00003e60  a6a6            a-line
00003e62  a6a6            a-line
00003e64  a6a6            a-line
00003e66  a6a6            a-line
00003e68  a6a6            a-line
00003e6a  a6a6            a-line
00003e6c  a6a6            a-line
00003e6e  a6a6            a-line
00003e70  a6a6            a-line
00003e72  a6a6            a-line
00003e74  a6a6            a-line
00003e76  a6a6            a-line
00003e78  a6a6            a-line
00003e7a  a6a6            a-line
00003e7c  a6a6            a-line
00003e7e  a6a6            a-line
00003e80  a6a6            a-line
00003e82  a6a6            a-line
00003e84  a6a6            a-line
00003e86  a6a6            a-line
00003e88  a6a6            a-line
00003e8a  a6a6            a-line
00003e8c  a6a6            a-line
00003e8e  a6a6            a-line
00003e90  a6a6            a-line
00003e92  a6a6            a-line
00003e94  a6a6            a-line
00003e96  a6a6            a-line
00003e98  a6a6            a-line
00003e9a  a6a6            a-line
00003e9c  a6a6            a-line
00003e9e  a6a6            a-line
00003ea0  a6a6            a-line
00003ea2  a6a6            a-line
00003ea4  a6a6            a-line
00003ea6  a6a6            a-line
00003ea8  a6a6            a-line
00003eaa  a6a6            a-line
00003eac  a6a6            a-line
00003eae  a6a6            a-line
00003eb0  a6a6            a-line
00003eb2  a6a6            a-line
00003eb4  a6a6            a-line
00003eb6  a6a6            a-line
00003eb8  a6a6            a-line
00003eba  a6a6            a-line
00003ebc  a6a6            a-line
00003ebe  a6a6            a-line
00003ec0  a6a6            a-line
00003ec2  a6a6            a-line
00003ec4  a6a6            a-line
00003ec6  a6a6            a-line
00003ec8  a6a6            a-line
00003eca  a6a6            a-line
00003ecc  a6a6            a-line
00003ece  a6a6            a-line
00003ed0  a6a6            a-line
00003ed2  a6a6            a-line
00003ed4  a6a6            a-line
00003ed6  a6a6            a-line
00003ed8  a6a6            a-line
00003eda  a6a6            a-line
00003edc  a6a6            a-line
00003ede  a6a6            a-line
00003ee0  a6a6            a-line
00003ee2  a6a6            a-line
00003ee4  a6a6            a-line
00003ee6  a6a6            a-line
00003ee8  a6a6            a-line
00003eea  a6a6            a-line
00003eec  a6a6            a-line
00003eee  a6a6            a-line
00003ef0  a6a6            a-line
00003ef2  a6a6            a-line
00003ef4  a6a6            a-line
00003ef6  a6a6            a-line
00003ef8  a6a6            a-line
00003efa  a6a6            a-line
00003efc  a6a6            a-line
00003efe  a6a6            a-line
00003f00  a6a6            a-line
00003f02  a6a6            a-line
00003f04  a6a6            a-line
00003f06  a6a6            a-line
00003f08  a6a6            a-line
00003f0a  a6a6            a-line
00003f0c  a6a6            a-line
00003f0e  a6a6            a-line
00003f10  a6a6            a-line
00003f12  a6a6            a-line
00003f14  a6a6            a-line
00003f16  a6a6            a-line
00003f18  a6a6            a-line
00003f1a  a6a6            a-line
00003f1c  a6a6            a-line
00003f1e  a6a6            a-line
00003f20  a6a6            a-line
00003f22  a6a6            a-line
00003f24  a6a6            a-line
00003f26  a6a6            a-line
00003f28  a6a6            a-line
00003f2a  a6a6            a-line
00003f2c  a6a6            a-line
00003f2e  a6a6            a-line
00003f30  a6a6            a-line
00003f32  a6a6            a-line
00003f34  a6a6            a-line
00003f36  a6a6            a-line
00003f38  a6a6            a-line
00003f3a  a6a6            a-line
00003f3c  a6a6            a-line
00003f3e  a6a6            a-line
00003f40  a6a6            a-line
00003f42  a6a6            a-line
00003f44  a6a6            a-line
00003f46  a6a6            a-line
00003f48  a6a6            a-line
00003f4a  a6a6            a-line
00003f4c  a6a6            a-line
00003f4e  a6a6            a-line
00003f50  a6a6            a-line
00003f52  a6a6            a-line
00003f54  a6a6            a-line
00003f56  a6a6            a-line
00003f58  a6a6            a-line
00003f5a  a6a6            a-line
00003f5c  a6a6            a-line
00003f5e  a6a6            a-line
00003f60  a6a6            a-line
00003f62  a6a6            a-line
00003f64  a6a6            a-line
00003f66  a6a6            a-line
00003f68  a6a6            a-line
00003f6a  a6a6            a-line
00003f6c  a6a6            a-line
00003f6e  a6a6            a-line
00003f70  a6a6            a-line
00003f72  a6a6            a-line
00003f74  a6a6            a-line
00003f76  a6a6            a-line
00003f78  a6a6            a-line
00003f7a  a6a6            a-line
00003f7c  a6a6            a-line
00003f7e  a6a6            a-line
00003f80  a6a6            a-line
00003f82  a6a6            a-line
00003f84  a6a6            a-line
00003f86  a6a6            a-line
00003f88  a6a6            a-line
00003f8a  a6a6            a-line
00003f8c  a6a6            a-line
00003f8e  a6a6            a-line
00003f90  a6a6            a-line
00003f92  a6a6            a-line
00003f94  a6a6            a-line
00003f96  a6a6            a-line
00003f98  a6a6            a-line
00003f9a  a6a6            a-line
00003f9c  a6a6            a-line
00003f9e  a6a6            a-line
00003fa0  a6a6            a-line
00003fa2  a6a6            a-line
00003fa4  a6a6            a-line
00003fa6  a6a6            a-line
00003fa8  a6a6            a-line
00003faa  a6a6            a-line
00003fac  a6a6            a-line
00003fae  a6a6            a-line
00003fb0  a6a6            a-line
00003fb2  a6a6            a-line
00003fb4  a6a6            a-line
00003fb6  a6a6            a-line
00003fb8  a6a6            a-line
00003fba  a6a6            a-line
00003fbc  a6a6            a-line
00003fbe  a6a6            a-line
00003fc0  a6a6            a-line
00003fc2  a6a6            a-line
00003fc4  a6a6            a-line
00003fc6  a6a6            a-line
00003fc8  a6a6            a-line
00003fca  a6a6            a-line
00003fcc  a6a6            a-line
00003fce  a6a6            a-line
00003fd0  a6a6            a-line
00003fd2  a6a6            a-line
00003fd4  a6a6            a-line
00003fd6  a6a6            a-line
00003fd8  a6a6            a-line
00003fda  a6a6            a-line
00003fdc  a6a6            a-line
00003fde  a6a6            a-line
00003fe0  a6a6            a-line
00003fe2  a6a6            a-line
00003fe4  a6a6            a-line
00003fe6  a6a6            a-line
00003fe8  a6a6            a-line
00003fea  a6a6            a-line
00003fec  a6a6            a-line
00003fee  a6a6            a-line
00003ff0  a6a6            a-line
00003ff2  a6a6            a-line
00003ff4  a6a6            a-line
00003ff6  a6a6            a-line
00003ff8  a6a6            a-line
00003ffa  a6a6            a-line
00003ffc  a6a6            a-line
00003ffe  a6a6            a-line
00004000  a6a6            a-line
00004002  a6a6            a-line
00004004  a6a6            a-line
00004006  a6a6            a-line
00004008  a6a6            a-line
0000400a  a6a6            a-line
0000400c  a6a6            a-line
0000400e  a6a6            a-line
00004010  a6a6            a-line
00004012  a6a6            a-line
00004014  a6a6            a-line
00004016  a6a6            a-line
00004018  a6a6            a-line
0000401a  a6a6            a-line
0000401c  a6a6            a-line
0000401e  a6a6            a-line
00004020  a6a6            a-line
00004022  a6a6            a-line
00004024  a6a6            a-line
00004026  a6a6            a-line
00004028  a6a6            a-line
0000402a  a6a6            a-line
0000402c  a6a6            a-line
0000402e  a6a6            a-line
00004030  a6a6            a-line
00004032  a6a6            a-line
00004034  a6a6            a-line
00004036  a6a6            a-line
00004038  a6a6            a-line
0000403a  a6a6            a-line
0000403c  a6a6            a-line
0000403e  a6a6            a-line
00004040  a6a6            a-line
00004042  a6a6            a-line
00004044  a6a6            a-line
00004046  a6a6            a-line
00004048  a6a6            a-line
0000404a  a6a6            a-line
0000404c  a6a6            a-line
0000404e  a6a6            a-line
00004050  a6a6            a-line
00004052  a6a6            a-line
00004054  a6a6            a-line
00004056  a6a6            a-line
00004058  a6a6            a-line
0000405a  a6a6            a-line
0000405c  a6a6            a-line
0000405e  a6a6            a-line
00004060  a6a6            a-line
00004062  a6a6            a-line
00004064  a6a6            a-line
00004066  a6a6            a-line
00004068  a6a6            a-line
0000406a  a6a6            a-line
0000406c  a6a6            a-line
0000406e  a6a6            a-line
00004070  a6a6            a-line
00004072  a6a6            a-line
00004074  a6a6            a-line
00004076  a6a6            a-line
00004078  a6a6            a-line
0000407a  a6a6            a-line
0000407c  a6a6            a-line
0000407e  a6a6            a-line
00004080  a6a6            a-line
00004082  a6a6            a-line
00004084  a6a6            a-line
00004086  a6a6            a-line
00004088  a6a6            a-line
0000408a  a6a6            a-line
0000408c  a6a6            a-line
0000408e  a6a6            a-line
00004090  a6a6            a-line
00004092  a6a6            a-line
00004094  a6a6            a-line
00004096  a6a6            a-line
00004098  a6a6            a-line
0000409a  a6a6            a-line
0000409c  a6a6            a-line
0000409e  a6a6            a-line
000040a0  a6a6            a-line
000040a2  a6a6            a-line
000040a4  a6a6            a-line
000040a6  a6a6            a-line
000040a8  a6a6            a-line
000040aa  a6a6            a-line
000040ac  a6a6            a-line
000040ae  a6a6            a-line
000040b0  a6a6            a-line
000040b2  a6a6            a-line
000040b4  a6a6            a-line
000040b6  a6a6            a-line
000040b8  a6a6            a-line
000040ba  a6a6            a-line
000040bc  a6a6            a-line
000040be  a6a6            a-line
000040c0  a6a6            a-line
000040c2  a6a6            a-line
000040c4  a6a6            a-line
000040c6  a6a6            a-line
000040c8  a6a6            a-line
000040ca  a6a6            a-line
000040cc  a6a6            a-line
000040ce  a6a6            a-line
000040d0  a6a6            a-line
000040d2  a6a6            a-line
000040d4  a6a6            a-line
000040d6  a6a6            a-line
000040d8  a6a6            a-line
000040da  a6a6            a-line
000040dc  a6a6            a-line
000040de  a6a6            a-line
000040e0  a6a6            a-line
000040e2  a6a6            a-line
000040e4  a6a6            a-line
000040e6  a6a6            a-line
000040e8  a6a6            a-line
000040ea  a6a6            a-line
000040ec  a6a6            a-line
000040ee  a6a6            a-line
000040f0  a6a6            a-line
000040f2  a6a6            a-line
000040f4  a6a6            a-line
000040f6  a6a6            a-line
000040f8  a6a6            a-line
000040fa  a6a6            a-line
000040fc  a6a6            a-line
000040fe  a6a6            a-line
00004100  a6a6            a-line
00004102  a6a6            a-line
00004104  a6a6            a-line
00004106  a6a6            a-line
00004108  a6a6            a-line
0000410a  a6a6            a-line
0000410c  a6a6            a-line
0000410e  a6a6            a-line
00004110  a6a6            a-line
00004112  a6a6            a-line
00004114  a6a6            a-line
00004116  a6a6            a-line
00004118  a6a6            a-line
0000411a  a6a6            a-line
0000411c  a6a6            a-line
0000411e  a6a6            a-line
00004120  a6a6            a-line
00004122  a6a6            a-line
00004124  a6a6            a-line
00004126  a6a6            a-line
00004128  a6a6            a-line
0000412a  a6a6            a-line
0000412c  a6a6            a-line
0000412e  a6a6            a-line
00004130  a6a6            a-line
00004132  a6a6            a-line
00004134  a6a6            a-line
00004136  a6a6            a-line
00004138  a6a6            a-line
0000413a  a6a6            a-line
0000413c  a6a6            a-line
0000413e  a6a6            a-line
00004140  a6a6            a-line
00004142  a6a6            a-line
00004144  a6a6            a-line
00004146  a6a6            a-line
00004148  a6a6            a-line
0000414a  a6a6            a-line
0000414c  a6a6            a-line
0000414e  a6a6            a-line
00004150  a6a6            a-line
00004152  a6a6            a-line
00004154  a6a6            a-line
00004156  a6a6            a-line
00004158  a6a6            a-line
0000415a  a6a6            a-line
0000415c  a6a6            a-line
0000415e  a6a6            a-line
00004160  a6a6            a-line
00004162  a6a6            a-line
00004164  a6a6            a-line
00004166  a6a6            a-line
00004168  a6a6            a-line
0000416a  a6a6            a-line
0000416c  a6a6            a-line
0000416e  a6a6            a-line
00004170  a6a6            a-line
00004172  a6a6            a-line
00004174  a6a6            a-line
00004176  a6a6            a-line
00004178  a6a6            a-line
0000417a  a6a6            a-line
0000417c  a6a6            a-line
0000417e  a6a6            a-line
00004180  a6a6            a-line
00004182  a6a6            a-line
00004184  a6a6            a-line
00004186  a6a6            a-line
00004188  a6a6            a-line
0000418a  a6a6            a-line
0000418c  a6a6            a-line
0000418e  a6a6            a-line
00004190  a6a6            a-line
00004192  a6a6            a-line
00004194  a6a6            a-line
00004196  a6a6            a-line
00004198  a6a6            a-line
0000419a  a6a6            a-line
0000419c  a6a6            a-line
0000419e  a6a6            a-line
000041a0  a6a6            a-line
000041a2  a6a6            a-line
000041a4  a6a6            a-line
000041a6  a6a6            a-line
000041a8  a6a6            a-line
000041aa  a6a6            a-line
000041ac  a6a6            a-line
000041ae  a6a6            a-line
000041b0  a6a6            a-line
000041b2  a6a6            a-line
000041b4  a6a6            a-line
000041b6  a6a6            a-line
000041b8  a6a6            a-line
000041ba  a6a6            a-line
000041bc  a6a6            a-line
000041be  a6a6            a-line
000041c0  a6a6            a-line
000041c2  a6a6            a-line
000041c4  a6a6            a-line
000041c6  a6a6            a-line
000041c8  a6a6            a-line
000041ca  a6a6            a-line
000041cc  a6a6            a-line
000041ce  a6a6            a-line
000041d0  a6a6            a-line
000041d2  a6a6            a-line
000041d4  a6a6            a-line
000041d6  a6a6            a-line
000041d8  a6a6            a-line
000041da  a6a6            a-line
000041dc  a6a6            a-line
000041de  a6a6            a-line
000041e0  a6a6            a-line
000041e2  a6a6            a-line
000041e4  a6a6            a-line
000041e6  a6a6            a-line
000041e8  a6a6            a-line
000041ea  a6a6            a-line
000041ec  a6a6            a-line
000041ee  a6a6            a-line
000041f0  a6a6            a-line
000041f2  a6a6            a-line
000041f4  a6a6            a-line
000041f6  a6a6            a-line
000041f8  a6a6            a-line
000041fa  a6a6            a-line
000041fc  a6a6            a-line
000041fe  a6a6            a-line
00004200  a6a6            a-line
00004202  a6a6            a-line
00004204  a6a6            a-line
00004206  a6a6            a-line
00004208  a6a6            a-line
0000420a  a6a6            a-line
0000420c  a6a6            a-line
0000420e  a6a6            a-line
00004210  a6a6            a-line
00004212  a6a6            a-line
00004214  a6a6            a-line
00004216  a6a6            a-line
00004218  a6a6            a-line
0000421a  a6a6            a-line
0000421c  a6a6            a-line
0000421e  a6a6            a-line
00004220  a6a6            a-line
00004222  a6a6            a-line
00004224  a6a6            a-line
00004226  a6a6            a-line
00004228  a6a6            a-line
0000422a  a6a6            a-line
0000422c  a6a6            a-line
0000422e  a6a6            a-line
00004230  a6a6            a-line
00004232  a6a6            a-line
00004234  a6a6            a-line
00004236  a6a6            a-line
00004238  a6a6            a-line
0000423a  a6a6            a-line
0000423c  a6a6            a-line
0000423e  a6a6            a-line
00004240  a6a6            a-line
00004242  a6a6            a-line
00004244  a6a6            a-line
00004246  a6a6            a-line
00004248  a6a6            a-line
0000424a  a6a6            a-line
0000424c  a6a6            a-line
0000424e  a6a6            a-line
00004250  a6a6            a-line
00004252  a6a6            a-line
00004254  a6a6            a-line
00004256  a6a6            a-line
00004258  a6a6            a-line
0000425a  a6a6            a-line
0000425c  a6a6            a-line
0000425e  a6a6            a-line
00004260  a6a6            a-line
00004262  a6a6            a-line
00004264  a6a6            a-line
00004266  a6a6            a-line
00004268  a6a6            a-line
0000426a  a6a6            a-line
0000426c  a6a6            a-line
0000426e  a6a6            a-line
00004270  a6a6            a-line
00004272  a6a6            a-line
00004274  a6a6            a-line
00004276  a6a6            a-line
00004278  a6a6            a-line
0000427a  a6a6            a-line
0000427c  a6a6            a-line
0000427e  a6a6            a-line
00004280  a6a6            a-line
00004282  a6a6            a-line
00004284  a6a6            a-line
00004286  a6a6            a-line
00004288  a6a6            a-line
0000428a  a6a6            a-line
0000428c  a6a6            a-line
0000428e  a6a6            a-line
00004290  a6a6            a-line
00004292  a6a6            a-line
00004294  a6a6            a-line
00004296  a6a6            a-line
00004298  a6a6            a-line
0000429a  a6a6            a-line
0000429c  a6a6            a-line
0000429e  a6a6            a-line
000042a0  a6a6            a-line
000042a2  a6a6            a-line
000042a4  a6a6            a-line
000042a6  a6a6            a-line
000042a8  a6a6            a-line
000042aa  a6a6            a-line
000042ac  a6a6            a-line
000042ae  a6a6            a-line
000042b0  a6a6            a-line
000042b2  a6a6            a-line
000042b4  a6a6            a-line
000042b6  a6a6            a-line
000042b8  a6a6            a-line
000042ba  a6a6            a-line
000042bc  a6a6            a-line
000042be  a6a6            a-line
000042c0  a6a6            a-line
000042c2  a6a6            a-line
000042c4  a6a6            a-line
000042c6  a6a6            a-line
000042c8  a6a6            a-line
000042ca  a6a6            a-line
000042cc  a6a6            a-line
000042ce  a6a6            a-line
000042d0  a6a6            a-line
000042d2  a6a6            a-line
000042d4  a6a6            a-line
000042d6  a6a6            a-line
000042d8  a6a6            a-line
000042da  a6a6            a-line
000042dc  a6a6            a-line
000042de  a6a6            a-line
000042e0  a6a6            a-line
000042e2  a6a6            a-line
000042e4  a6a6            a-line
000042e6  a6a6            a-line
000042e8  a6a6            a-line
000042ea  a6a6            a-line
000042ec  a6a6            a-line
000042ee  a6a6            a-line
000042f0  a6a6            a-line
000042f2  a6a6            a-line
000042f4  a6a6            a-line
000042f6  a6a6            a-line
000042f8  a6a6            a-line
000042fa  a6a6            a-line
000042fc  a6a6            a-line
000042fe  a6a6            a-line
00004300  a6a6            a-line
00004302  a6a6            a-line
00004304  a6a6            a-line
00004306  a6a6            a-line
00004308  a6a6            a-line
0000430a  a6a6            a-line
0000430c  a6a6            a-line
0000430e  a6a6            a-line
00004310  a6a6            a-line
00004312  a6a6            a-line
00004314  a6a6            a-line
00004316  a6a6            a-line
00004318  a6a6            a-line
0000431a  a6a6            a-line
0000431c  a6a6            a-line
0000431e  a6a6            a-line
00004320  a6a6            a-line
00004322  a6a6            a-line
00004324  a6a6            a-line
00004326  a6a6            a-line
00004328  a6a6            a-line
0000432a  a6a6            a-line
0000432c  a6a6            a-line
0000432e  a6a6            a-line
00004330  a6a6            a-line
00004332  a6a6            a-line
00004334  a6a6            a-line
00004336  a6a6            a-line
00004338  a6a6            a-line
0000433a  a6a6            a-line
0000433c  a6a6            a-line
0000433e  a6a6            a-line
00004340  a6a6            a-line
00004342  a6a6            a-line
00004344  a6a6            a-line
00004346  a6a6            a-line
00004348  00fc            
0000434a  08f4 0010 0000  bset.b  #0,0(a4,d0.w*1)
00004350  1970 0000 0000  move.b  0(a0,d0.w*1),0(a4)
00004356  4000            negx.b  d0
00004358  0000 0000       ori.b   #0,d0
0000435c  0001 000e       ori.b   #e,d1
00004360  f432            f-line
00004362  0000 0000       ori.b   #0,d0
00004366  8000            or.b    d0,d0
00004368  0000 c000       ori.b   #0,d0
0000436c  0000 0000       ori.b   #0,d0
00004370  32ec 0000       move.w  0(a4),(a1)+
00004374  3342 0000       move.w  d2,0(a1)
00004378  45fe            lea.l   ???
0000437a  0000 43ce       ori.b   #ce,d0
0000437e  0000 43a2       ori.b   #a2,d0
00004382  0000 0640       ori.b   #40,d0
00004386  0000 0676       ori.b   #76,d0
0000438a  00fc            
0000438c  1f4c 00fe       move.b  a4,fe(sp)
00004390  5f3c 00fc       subq.b  #7,#fc
00004394  1d28 0000       move.b  0(a0),-(a6)
00004398  32ec 0000       move.w  0(a4),(a1)+
0000439c  0676 0000 46aa  addi.w  #0,-56(a6,d4.w*8)
000043a2  0000 0000       ori.b   #0,d0
000043a6  0000 46aa       ori.b   #aa,d0
000043aa  0000 0000       ori.b   #0,d0
000043ae  .... ....       [1 more]
-------------------------------
000043b2  0000 0400       ori.b   #0,d0
000043b6  0000 0000       ori.b   #0,d0
000043ba  001e 0000       ori.b   #0,(a6)+
000043be  3342 0000       move.w  d2,0(a1)
000043c2  43c4            lea.l   d4
000043c4  0000 0000       ori.b   #0,d0
000043c8  0000 43c0       ori.b   #c0,d0
000043cc  0000 0000       ori.b   #0,d0
000043d0  0000 0600       ori.b   #0,d0
000043d4  0000 0000       ori.b   #0,d0
000043d8  .... ....       [1 more]
-------------------------------
000043dc  0000 0001       ori.b   #1,d0
000043e0  000e f432       ori.b   #32,a6
000043e4  0000 6176       ori.b   #76,d0
000043e8  0000 2fc6       ori.b   #c6,d0
000043ec  0500            btst.l  d2,d0
000043ee  0000 0000       ori.b   #0,d0
000043f2  0000 43ac       ori.b   #ac,d0
000043f6  0000 0000       ori.b   #0,d0
000043fa  2f4e 0000       move.l  a6,0(sp)
000043fe  003f            move.l  d6,???
00004400  0009 0000       ori.b   #0,a1
00004404  0000 0000       ori.b   #0,d0
00004408  0001 86a0       ori.b   #a0,d1
0000440c  0000 0000       ori.b   #0,d0
00004410  .... ....       [5 more]
-------------------------------
00004424  2e14            move.l  (a4),d7
00004426  0000 2e10       ori.b   #10,d0
0000442a  0500            btst.l  d2,d0
0000442c  0000 0000       ori.b   #0,d0
00004430  0000 43ac       ori.b   #ac,d0
00004434  0000 0000       ori.b   #0,d0
00004438  003e            move.l  d4,???
0000443a  0000 2dfc       ori.b   #fc,d0
0000443e  0009 2000       ori.b   #0,a1
00004442  0000 0008       ori.b   #8,d0
00004446  0000 0016       ori.b   #16,d0
0000444a  0000 440c       ori.b   #c,d0
0000444e  0000 0000       ori.b   #0,d0
00004452  .... ....       [6 more]
-------------------------------
0000446a  2cd8            move.l  (a0)+,(a6)+
0000446c  0000 2cd4       ori.b   #d4,d0
00004470  0500            btst.l  d2,d0
00004472  0000 0000       ori.b   #0,d0
00004476  0000 43ac       ori.b   #ac,d0
0000447a  0000 0000       ori.b   #0,d0
0000447e  2c8c            move.l  a4,(a6)
00004480  0000 2cc0       ori.b   #c0,d0
00004484  0009 2000       ori.b   #0,a1
00004488  0000 0000       ori.b   #0,d0
0000448c  0000 0016       ori.b   #16,d0
00004490  0000 4452       ori.b   #52,d0
00004494  0000 0000       ori.b   #0,d0
00004498  .... ....       [4 more]
-------------------------------
000044a8  43ac 0000       chk.w   0(a4),d1
000044ac  0000 2f4e       ori.b   #4e,d0
000044b0  0000 2fc6       ori.b   #c6,d0
000044b4  0000 0000       ori.b   #0,d0
000044b8  .... ....       [4 more]
-------------------------------
000044c8  0500            btst.l  d2,d0
000044ca  0000 0000       ori.b   #0,d0
000044ce  0000 43ac       ori.b   #ac,d0
000044d2  0000 0000       ori.b   #0,d0
000044d6  2f4e 0000       move.l  a6,0(sp)
000044da  003f            move.l  d6,???
000044dc  000a 0100       ori.b   #0,a2
000044e0  0000 0001       ori.b   #1,d0
000044e4  000e f432       ori.b   #32,a6
000044e8  0000 0000       ori.b   #0,d0
000044ec  000c 3500       ori.b   #0,a4
000044f0  0000 0000       ori.b   #0,d0
000044f4  0001 86a0       ori.b   #a0,d1
000044f8  0000 0000       ori.b   #0,d0
000044fc  0000 ffff       ori.b   #ff,d0
00004500  0000 0000       ori.b   #0,d0
00004504  .... ....       [4 more]
-------------------------------
00004514  0001 0003       ori.b   #3,d1
00004518  0000 0001       ori.b   #1,d0
0000451c  0001 0000       ori.b   #0,d1
00004520  4ef9 00fe 0ad6  jmp     fe0ad6
00004526  4ef9 00fe 0b3e  jmp     fe0b3e
0000452c  4ef9 00fe 0b34  jmp     fe0b34
00004532  4ef9 00fe 0b2a  jmp     fe0b2a
00004538  4ef9 00fe 0b20  jmp     fe0b20
0000453e  4ef9 00fe 0c2a  jmp     fe0c2a
00004544  4ef9 00fe 0b0a  jmp     fe0b0a
0000454a  4ef9 00fe 2cac  jmp     fe2cac
00004550  4ef9 00fe 0b14  jmp     fe0b14
00004556  4ef9 00fe 0b00  jmp     fe0b00
0000455c  4ef9 00fe 0aec  jmp     fe0aec
00004562  4ef9 00fe 0af6  jmp     fe0af6
00004568  4ef9 00fe 39be  jmp     fe39be
0000456e  4ef9 00fe 39b4  jmp     fe39b4
00004574  4ef9 00fe 0ae2  jmp     fe0ae2
0000457a  4ef9 00fe 0aca  jmp     fe0aca
00004580  4ef9 00fe 0ac0  jmp     fe0ac0
00004586  4ef9 00fe 0ab0  jmp     fe0ab0
0000458c  4ef9 00fe 0aa0  jmp     fe0aa0
00004592  4ef9 00fe 0a90  jmp     fe0a90
00004598  4ef9 00fe 0a86  jmp     fe0a86
0000459e  4ef9 00fe 0a7c  jmp     fe0a7c
000045a4  4ef9 00fe 0a54  jmp     fe0a54
000045aa  4ef9 00fe 0a68  jmp     fe0a68
000045b0  4ef9 00fe 0a4a  jmp     fe0a4a
000045b6  4ef9 00fe 2ca4  jmp     fe2ca4
000045bc  4ef9 00fe 2ca8  jmp     fe2ca8
000045c2  4ef9 00fe 2ca8  jmp     fe2ca8
000045c8  4ef9 00fe 2ca4  jmp     fe2ca4
000045ce  0000 4984       ori.b   #84,d0
000045d2  0000 221e       ori.b   #1e,d0
000045d6  0000 00fe       ori.b   #fe,d0
000045da  0994            bclr.b  d4,(a4)
000045dc  0400 00ae       subi.b  #ae,d0
000045e0  002a 0022 0001  ori.b   #22,1(a2)
000045e6  0000 0000       ori.b   #0,d0
000045ea  50c1            st.b    d1
000045ec  0000 0001       ori.b   #1,d0
000045f0  0000 221e       ori.b   #1e,d0
000045f4  0000 0676       ori.b   #76,d0
000045f8  4ef9 00fe 6d18  jmp     fe6d18
000045fe  4ef9 00fe 6948  jmp     fe6948
00004604  4ef9 00fe 4d7c  jmp     fe4d7c
0000460a  4ef9 00fe 4cb8  jmp     fe4cb8
00004610  4ef9 00fe 4e50  jmp     fe4e50
00004616  4ef9 00fe 68be  jmp     fe68be
0000461c  4ef9 00fe 6cca  jmp     fe6cca
00004622  4ef9 00fe 6ba0  jmp     fe6ba0
00004628  0000 4704       ori.b   #4,d0
0000462c  0000 32ec       ori.b   #ec,d0
00004630  0300            btst.l  d1,d0
00004632  00fe            
00004634  4c86 0400       movem.w d6,a2
00004638  0030 00b8 0022  ori.b   #b8,22(a0,d0.w*1)
0000463e  0001 0000       ori.b   #0,d1
00004642  0000 7fc4       ori.b   #c4,d0
00004646  0000 0000       ori.b   #0,d0
0000464a  .... ....       [1 more]
-------------------------------
0000464e  0000 0676       ori.b   #76,d0
00004652  00fe            
00004654  684a            bvc.b   46a0
00004656  00fe            
00004658  687e            bvc.b   46d8
0000465a  000d 0000       ori.b   #0,a5
0000465e  221e            move.l  (a6)+,d1
00004660  0000 0000       ori.b   #0,d0
00004664  0000 4668       ori.b   #68,d0
00004668  0000 0000       ori.b   #0,d0
0000466c  0000 4664       ori.b   #64,d0
00004670  0000 0000       ori.b   #0,d0
00004674  .... ....       [2 more]
-------------------------------
0000467c  1912            move.b  (a2),-(a4)
0000467e  0000 190e       ori.b   #e,d0
00004682  0700            btst.l  d3,d0
00004684  0000 0000       ori.b   #0,d0
00004688  0000 18fa       ori.b   #fa,d0
0000468c  0000 0000       ori.b   #0,d0
00004690  32ec 0000       move.w  0(a4),(a1)+
00004694  3320            move.w  -(a0),-(a1)
00004696  0009 a000       ori.b   #0,a1
0000469a  0000 0000       ori.b   #0,d0
0000469e  .... ....       [1 more]
-------------------------------
000046a2  0000 46aa       ori.b   #aa,d0
000046a6  0000 0000       ori.b   #0,d0
000046aa  0000 43a2       ori.b   #a2,d0
000046ae  0000 439e       ori.b   #9e,d0
000046b2  0200 00fe       andi.b  #fe,d0
000046b6  4c86 0000       movem.w d6,
000046ba  4628 0000       not.b   0(a0)
000046be  45fe            lea.l   ???
000046c0  00fe            
000046c2  7fc8            moveq   #-38,d7
000046c4  00fe            
000046c6  8040            or.w    d0,d0
000046c8  00fe            
000046ca  7faa            moveq   #-56,d7
000046cc  00fe            
000046ce  7fb9            moveq   #-47,d7
000046d0  00fe            
000046d2  8008            or.b    a0,d0
000046d4  00fe            
000046d6  8140            or.w    d0,d0
000046d8  00fe            
000046da  7fb2            moveq   #-4e,d7
000046dc  00fe            
000046de  7fc1            moveq   #-3f,d7
000046e0  4ef9 00fe 9cea  jmp     fe9cea
000046e6  4ef9 00fe 9c3e  jmp     fe9c3e
000046ec  4ef9 00fe 9cea  jmp     fe9cea
000046f2  4ef9 00fe 9b94  jmp     fe9b94
000046f8  4ef9 00fe 9c12  jmp     fe9c12
000046fe  4ef9 00fe 9bc2  jmp     fe9bc2
00004704  0000 07d8       ori.b   #d8,d0
00004708  0000 4628       ori.b   #28,d0
0000470c  0300            btst.l  d1,d0
0000470e  00fe            
00004710  957e            sub.w   d2,???
00004712  0400 0024       subi.b  #24,d0
00004716  00a8 0022 0001  ori.l   #220001,0(a0)
0000471c  0000 
0000471e  0000 8944       ori.b   #44,d0
00004722  0000 0001       ori.b   #1,d0
00004726  0000 0000       ori.b   #0,d0
0000472a  60f0            bra.b   471c
0000472c  0000 0000       ori.b   #0,d0
00004730  .... ....       [2 more]
-------------------------------
00004738  0000 0676       ori.b   #76,d0
0000473c  0000 221e       ori.b   #1e,d0
00004740  0000 1efe       ori.b   #fe,d0
00004744  0000 0000       ori.b   #0,d0
00004748  .... ....       [3 more]
-------------------------------
00004754  2f4e 0000       move.l  a6,0(sp)
00004758  2f78 0000 2f4e  move.l  0,2f4e(sp)
0000475e  0000 2fc6       ori.b   #c6,d0
00004762  0000 1b18       ori.b   #18,d0
00004766  0000 2d84       ori.b   #84,d0
0000476a  0000 2d80       ori.b   #80,d0
0000476e  0000 0000       ori.b   #0,d0
00004772  .... ....       [1 more]
-------------------------------
00004776  4704            chk.l   d4,d3
00004778  00fe            
0000477a  9b6e 0000       sub.w   d5,0(a6)
0000477e  0000 0000       ori.b   #0,d0
00004782  .... ....       [4 more]
-------------------------------
00004792  2c8c            move.l  a4,(a6)
00004794  0000 2cc0       ori.b   #c0,d0
00004798  000d 0100       ori.b   #0,a5
0000479c  0000 0000       ori.b   #0,d0
000047a0  .... ....       [1 more]
-------------------------------
000047a4  0000 4766       ori.b   #66,d0
000047a8  0000 0000       ori.b   #0,d0
000047ac  .... ....       [1 more]
-------------------------------
000047b0  4ef9 00fd fc6a  jmp     fdfc6a
000047b6  4ef9 00fd ff3e  jmp     fdff3e
000047bc  4ef9 00fd ff32  jmp     fdff32
000047c2  4ef9 00fd ff26  jmp     fdff26
000047c8  4ef9 00fd ff14  jmp     fdff14
000047ce  4ef9 00fd ff00  jmp     fdff00
000047d4  4ef9 00fd feee  jmp     fdfeee
000047da  4ef9 00fd fedc  jmp     fdfedc
000047e0  4ef9 00fd fed0  jmp     fdfed0
000047e6  4ef9 00fd fec4  jmp     fdfec4
000047ec  4ef9 00fd feb6  jmp     fdfeb6
000047f2  4ef9 00fd feaa  jmp     fdfeaa
000047f8  4ef9 00fd fe98  jmp     fdfe98
000047fe  4ef9 00fd fe92  jmp     fdfe92
00004804  4ef9 00fd fe8c  jmp     fdfe8c
0000480a  4ef9 00fd fe80  jmp     fdfe80
00004810  4ef9 00fd fe74  jmp     fdfe74
00004816  4ef9 00fd fe66  jmp     fdfe66
0000481c  4ef9 00fd fe52  jmp     fdfe52
00004822  4ef9 00fd fe46  jmp     fdfe46
00004828  4ef9 00fd fe32  jmp     fdfe32
0000482e  4ef9 00fd fe2c  jmp     fdfe2c
00004834  4ef9 00fd fe26  jmp     fdfe26
0000483a  4ef9 00fd fe1a  jmp     fdfe1a
00004840  4ef9 00fd fe08  jmp     fdfe08
00004846  4ef9 00fd fdf6  jmp     fdfdf6
0000484c  4ef9 00fd fdea  jmp     fdfdea
00004852  4ef9 00fd fdde  jmp     fdfdde
00004858  4ef9 00fd fdd2  jmp     fdfdd2
0000485e  4ef9 00fd fdcc  jmp     fdfdcc
00004864  4ef9 00fd fdba  jmp     fdfdba
0000486a  4ef9 00fd fdac  jmp     fdfdac
00004870  4ef9 00fd fd9c  jmp     fdfd9c
00004876  4ef9 00fd fd88  jmp     fdfd88
0000487c  4ef9 00fd fd7a  jmp     fdfd7a
00004882  4ef9 00fd fd6c  jmp     fdfd6c
00004888  4ef9 00fd fd60  jmp     fdfd60
0000488e  4ef9 00fd fd54  jmp     fdfd54
00004894  4ef9 00fd fd46  jmp     fdfd46
0000489a  4ef9 00fd fd38  jmp     fdfd38
000048a0  4ef9 00fd fd2a  jmp     fdfd2a
000048a6  4ef9 00fd fd1a  jmp     fdfd1a
000048ac  4ef9 00fd fd06  jmp     fdfd06
000048b2  4ef9 00fd fd00  jmp     fdfd00
000048b8  4ef9 00fd fcf4  jmp     fdfcf4
000048be  4ef9 00fd fce8  jmp     fdfce8
000048c4  4ef9 00fd fcda  jmp     fdfcda
000048ca  4ef9 00fd fcca  jmp     fdfcca
000048d0  4ef9 00fd fcbc  jmp     fdfcbc
000048d6  4ef9 00fd fcac  jmp     fdfcac
000048dc  4ef9 00fd fc9a  jmp     fdfc9a
000048e2  4ef9 00fd fc88  jmp     fdfc88
000048e8  4ef9 00fd fc6e  jmp     fdfc6e
000048ee  4ef9 00fd fc5c  jmp     fdfc5c
000048f4  4ef9 00fd fc4e  jmp     fdfc4e
000048fa  4ef9 00fd fc42  jmp     fdfc42
00004900  4ef9 00fd fc34  jmp     fdfc34
00004906  4ef9 00fd fc26  jmp     fdfc26
0000490c  4ef9 00fd fc18  jmp     fdfc18
00004912  4ef9 00fd fc04  jmp     fdfc04
00004918  4ef9 00fd fbf0  jmp     fdfbf0
0000491e  4ef9 00fd fbde  jmp     fdfbde
00004924  4ef9 00fd fbd2  jmp     fdfbd2
0000492a  4ef9 00fd fbc0  jmp     fdfbc0
00004930  4ef9 00fd fbb2  jmp     fdfbb2
00004936  4ef9 00fd fbac  jmp     fdfbac
0000493c  4ef9 00fd fba0  jmp     fdfba0
00004942  4ef9 00fd fb94  jmp     fdfb94
00004948  4ef9 00fd fb88  jmp     fdfb88
0000494e  4ef9 00fd fb7c  jmp     fdfb7c
00004954  4ef9 00fd fb70  jmp     fdfb70
0000495a  4ef9 00fd fb5e  jmp     fdfb5e
00004960  4ef9 00fd fb58  jmp     fdfb58
00004966  4ef9 00fd fb4c  jmp     fdfb4c
0000496c  4ef9 00fd 3de2  jmp     fd3de2
00004972  4ef9 00fd 3de2  jmp     fd3de2
00004978  4ef9 00fd 3de2  jmp     fd3de2
0000497e  4ef9 00fd 3ddc  jmp     fd3ddc
00004984  0000 5bb0       ori.b   #b0,d0
00004988  0000 45ce       ori.b   #ce,d0
0000498c  0000 00fd       ori.b   #fd,d0
00004990  003e            move.w  a2,???
00004992  0400 01d4       subi.b  #d4,d0
00004996  0564            bchg.b  d2,-(a4)
00004998  0022 0003       ori.b   #3,-(a2)
0000499c  0000 0000       ori.b   #0,d0
000049a0  8a20            or.b    -(a0),d5
000049a2  0000 0000       ori.b   #0,d0
000049a6  .... ....       [3 more]
-------------------------------
000049b2  002c 0081 4000  ori.b   #81,4000(a4)
000049b8  0000 0000       ori.b   #0,d0
000049bc  .... ....       [2 more]
-------------------------------
000049c4  0001 0000       ori.b   #0,d1
000049c8  0000 0000       ori.b   #0,d0
000049cc  .... ....       [3 more]
-------------------------------
000049d8  1038 0000       move.b  0,d0
000049dc  0000 0000       ori.b   #0,d0
000049e0  .... ....       [1 more]
-------------------------------
000049e4  0000 0676       ori.b   #76,d0
000049e8  0000 221e       ori.b   #1e,d0
000049ec  0000 45ce       ori.b   #ce,d0
000049f0  0000 0000       ori.b   #0,d0
000049f4  0000 4f50       ori.b   #50,d0
000049f8  1000            move.b  d0,d0
000049fa  feff            f-line
000049fc  0000 0000       ori.b   #0,d0
00004a00  .... ....       [6 more]
-------------------------------
00004a18  0000 ffff       ori.b   #ff,d0
00004a1c  00ff            
00004a1e  0100            btst.l  d0,d0
00004a20  0000 0000       ori.b   #0,d0
00004a24  ffff            f-line
00004a26  0000 0000       ori.b   #0,d0
00004a2a  caca            mulu.w  a2,d5
00004a2c  caca            mulu.w  a2,d5
00004a2e  caca            mulu.w  a2,d5
00004a30  caca            mulu.w  a2,d5
00004a32  0000 0000       ori.b   #0,d0
00004a36  0000 23c8       ori.b   #c8,d0
00004a3a  0000 0009       ori.b   #9,d0
00004a3e  000a 0006       ori.b   #6,a2
00004a42  0000 0000       ori.b   #0,d0
00004a46  .... ....       [13 more]
-------------------------------
00004a7a  0000 4ab6       ori.b   #b6,d0
00004a7e  0000 0000       ori.b   #0,d0
00004a82  .... ....       [7 more]
-------------------------------
00004a9e  0000 4ade       ori.b   #de,d0
00004aa2  0000 0000       ori.b   #0,d0
00004aa6  .... ....       [93 more]
-------------------------------
00004c1a  0000 4ee8       ori.b   #e8,d0
00004c1e  0000 0000       ori.b   #0,d0
00004c22  .... ....       [10 more]
-------------------------------
00004c4a  0000 5030       ori.b   #30,d0
00004c4e  0000 5118       ori.b   #18,d0
00004c52  0000 5200       ori.b   #0,d0
00004c56  0000 5270       ori.b   #70,d0
00004c5a  00fd            
00004c5c  6112            bsr.b   4c70
00004c5e  0000 5358       ori.b   #58,d0
00004c62  0000 5440       ori.b   #40,d0
00004c66  00fd            
00004c68  6196            bsr.b   4c00
00004c6a  0000 5598       ori.b   #98,d0
00004c6e  0000 5680       ori.b   #80,d0
00004c72  0000 5768       ori.b   #68,d0
00004c76  0000 5800       ori.b   #0,d0
00004c7a  00fd            
00004c7c  6272            bhi.b   4cf0
00004c7e  0000 5898       ori.b   #98,d0
00004c82  0000 5980       ori.b   #80,d0
00004c86  00fd            
00004c88  62f6            bhi.b   4c80
00004c8a  0000 4fa0       ori.b   #a0,d0
00004c8e  0000 5528       ori.b   #28,d0
00004c92  0000 4fd8       ori.b   #d8,d0
00004c96  0000 5560       ori.b   #60,d0
00004c9a  0000 0000       ori.b   #0,d0
00004c9e  ffff            f-line
00004ca0  ffff            f-line
00004ca2  0000 0000       ori.b   #0,d0
00004ca6  ffff            f-line
00004ca8  ffff            f-line
00004caa  4444            neg.w   d4
00004cac  1111            move.b  (a1),-(a0)
00004cae  4444            neg.w   d4
00004cb0  1111            move.b  (a1),-(a0)
00004cb2  0000 4f50       ori.b   #50,d0
00004cb6  1000            move.b  d0,d0
00004cb8  feff            f-line
00004cba  0000 0001       ori.b   #1,d0
00004cbe  0007 a120       ori.b   #20,d7
00004cc2  0404 0202       subi.b  #2,d4
00004cc6  0404 0202       subi.b  #2,d4
00004cca  0101            btst.l  d0,d1
00004ccc  0502            btst.l  d2,d2
00004cce  0204 0404       andi.b  #4,d4
00004cd2  005a 0fff       ori.w   #fff,(a2)+
00004cd6  0002 0f80       ori.b   #80,d2
00004cda  0d22            btst.b  d6,-(a2)
00004cdc  0000 0fca       ori.b   #ca,d0
00004ce0  00fd            
00004ce2  ba70 0009       cmp.w   9(a0,d0.w*1),d5
00004ce6  0000 0000       ori.b   #0,d0
00004cea  5a68 0000       addq.w  #5,0(a0)
00004cee  0000 0081       ori.b   #81,d0
00004cf2  002c 0000 0000  ori.b   #0,0(a4)
00004cf8  0000 0000       ori.b   #0,d0
00004cfc  1038 0000       move.b  0,d0
00004d00  0000 0000       ori.b   #0,d0
00004d04  .... ....       [26 more]
-------------------------------
00004d6c  0000 1bf8       ori.b   #f8,d0
00004d70  0000 0000       ori.b   #0,d0
00004d74  .... ....       [1 more]
-------------------------------
00004d78  4d84            chk.w   d4,d6
00004d7a  0000 0000       ori.b   #0,d0
00004d7e  0000 4e98       ori.b   #98,d0
00004d82  0000 0000       ori.b   #0,d0
00004d86  4db2 0000       chk.w   0(a2,d0.w*1),d6
00004d8a  4d76            ???
00004d8c  0000 0000       ori.b   #0,d0
00004d90  .... ....       [1 more]
-------------------------------
00004d94  0000 4d98       ori.b   #98,d0
00004d98  0000 0000       ori.b   #0,d0
00004d9c  0000 4d94       ori.b   #94,d0
00004da0  0000 0000       ori.b   #0,d0
00004da4  .... ....       [3 more]
-------------------------------
00004db0  ffff            f-line
00004db2  0000 4de0       ori.b   #e0,d0
00004db6  0000 4d84       ori.b   #84,d0
00004dba  0000 0000       ori.b   #0,d0
00004dbe  .... ....       [1 more]
-------------------------------
00004dc2  0000 4dc6       ori.b   #c6,d0
00004dc6  0000 0000       ori.b   #0,d0
00004dca  0000 4dc2       ori.b   #c2,d0
00004dce  0000 0000       ori.b   #0,d0
00004dd2  .... ....       [3 more]
-------------------------------
00004dde  ffff            f-line
00004de0  0000 4e0e       ori.b   #e,d0
00004de4  0000 4db2       ori.b   #b2,d0
00004de8  0000 0000       ori.b   #0,d0
00004dec  .... ....       [1 more]
-------------------------------
00004df0  0000 4df4       ori.b   #f4,d0
00004df4  0000 0000       ori.b   #0,d0
00004df8  0000 4df0       ori.b   #f0,d0
00004dfc  0000 0000       ori.b   #0,d0
00004e00  .... ....       [3 more]
-------------------------------
00004e0c  ffff            f-line
00004e0e  0000 4e3c       ori.b   #3c,d0
00004e12  0000 4de0       ori.b   #e0,d0
00004e16  0000 0000       ori.b   #0,d0
00004e1a  .... ....       [1 more]
-------------------------------
00004e1e  0000 4e22       ori.b   #22,d0
00004e22  0000 0000       ori.b   #0,d0
00004e26  0000 4e1e       ori.b   #1e,d0
00004e2a  0000 0000       ori.b   #0,d0
00004e2e  .... ....       [3 more]
-------------------------------
00004e3a  ffff            f-line
00004e3c  0000 4e6a       ori.b   #6a,d0
00004e40  0000 4e0e       ori.b   #e,d0
00004e44  0000 0000       ori.b   #0,d0
00004e48  .... ....       [1 more]
-------------------------------
00004e4c  0000 4e50       ori.b   #50,d0
00004e50  0000 0000       ori.b   #0,d0
00004e54  0000 4e4c       ori.b   #4c,d0
00004e58  0000 0000       ori.b   #0,d0
00004e5c  .... ....       [3 more]
-------------------------------
00004e68  ffff            f-line
00004e6a  0000 4e98       ori.b   #98,d0
00004e6e  0000 4e3c       ori.b   #3c,d0
00004e72  0000 0000       ori.b   #0,d0
00004e76  .... ....       [1 more]
-------------------------------
00004e7a  0000 4e7e       ori.b   #7e,d0
00004e7e  0000 0000       ori.b   #0,d0
00004e82  0000 4e7a       ori.b   #7a,d0
00004e86  0000 0000       ori.b   #0,d0
00004e8a  .... ....       [3 more]
-------------------------------
00004e96  ffff            f-line
00004e98  0000 4d7a       ori.b   #7a,d0
00004e9c  0000 4e6a       ori.b   #6a,d0
00004ea0  0000 0000       ori.b   #0,d0
00004ea4  .... ....       [1 more]
-------------------------------
00004ea8  0000 4eac       ori.b   #ac,d0
00004eac  0000 0000       ori.b   #0,d0
00004eb0  0000 4ea8       ori.b   #a8,d0
00004eb4  0000 0000       ori.b   #0,d0
00004eb8  .... ....       [3 more]
-------------------------------
00004ec4  ffff            f-line
00004ec6  0200 01ff       andi.b  #ff,d0
00004eca  0280 0000 0000  andi.l  #0,d0
00004ed0  0000 0000       ori.b   #0,d0
00004ed4  .... ....       [11 more]
-------------------------------
00004f00  ffff            f-line
00004f02  00ff            
00004f04  0100            btst.l  d0,d0
00004f06  0000 0000       ori.b   #0,d0
00004f0a  ffff            f-line
00004f0c  0000 0000       ori.b   #0,d0
00004f10  caca            mulu.w  a2,d5
00004f12  caca            mulu.w  a2,d5
00004f14  caca            mulu.w  a2,d5
00004f16  caca            mulu.w  a2,d5
00004f18  0000 0000       ori.b   #0,d0
00004f1c  0000 23c8       ori.b   #c8,d0
00004f20  0000 0009       ori.b   #9,d0
00004f24  000a 0006       ori.b   #6,a2
00004f28  0000 0000       ori.b   #0,d0
00004f2c  .... ....       [9 more]
-------------------------------
00004f50  2b3f            move.l  ???
00004f52  3b01            move.w  d1,-(a5)
00004f54  0000 fc00       ori.b   #0,d0
00004f58  7c00            moveq   #0,d6
00004f5a  fe00            f-line
00004f5c  7c00            moveq   #0,d6
00004f5e  8600            or.b    d0,d3
00004f60  7800            moveq   #0,d4
00004f62  8c00            or.b    d0,d6
00004f64  7c00            moveq   #0,d6
00004f66  8600            or.b    d0,d3
00004f68  6e00 9300       bgt.w   ffffe26a
00004f6c  0700            btst.l  d3,d0
00004f6e  6980            bvs.b   4ef0
00004f70  0380            bclr.l  d1,d0
00004f72  04c0            
00004f74  01c0            bset.l  d0,d0
00004f76  0260 0080       andi.w  #80,-(a0)
00004f7a  0140            bchg.l  d0,d0
00004f7c  0000 0080       ori.b   #80,d0
00004f80  0000 0000       ori.b   #0,d0
00004f84  .... ....       [7 more]
-------------------------------
00004fa0  0002 0000       ori.b   #0,d2
00004fa4  000f 0008       ori.b   #8,sp
00004fa8  0001 0000       ori.b   #0,d1
00004fac  4fb8 0100       chk.w   100,d7
00004fb0  0000 0000       ori.b   #0,d0
00004fb4  .... ....       [1 more]
-------------------------------
00004fb8  fff1            f-line
00004fba  ffe7            f-line
00004fbc  ffcf            f-line
00004fbe  ff9f            f-line
00004fc0  0f3f            btst.b  d7,???
00004fc2  c67f            and.w   ???
00004fc4  e0ff            asr.w   ???
00004fc6  f1ff            f-line
00004fc8  0000 0000       ori.b   #0,d0
00004fcc  .... ....       [4 more]
-------------------------------
00004fdc  0017 0008       ori.b   #8,(sp)
00004fe0  0001 0000       ori.b   #0,d1
00004fe4  4ff0 0100       lea.l   ???[68020+]
00004fe8  0000 0000       ori.b   #0,d0
00004fec  .... ....       [1 more]
-------------------------------
00004ff0  c000            and.b   d0,d0
00004ff2  0600 0003       addi.b  #3,d0
00004ff6  c000            and.b   d0,d0
00004ff8  000f c000       ori.b   #0,sp
00004ffc  0039 c000 00e1  ori.b   #0,e1c000
00005002  c000 
00005004  03ff            bset.b  d1,???
00005006  c000            and.b   d0,d0
00005008  1f83 f000       move.b  d3,0(sp,sp.w*1)
0000500c  c000            and.b   d0,d0
0000500e  0600 0000       addi.b  #0,d0
00005012  0000 0000       ori.b   #0,d0
00005016  .... ....       [7 more]
-------------------------------
00005032  0000 ffe4       ori.b   #e4,d0
00005036  0000 001a       ori.b   #1a,d0
0000503a  000a 0014       ori.b   #14,a2
0000503e  0001 8040       ori.b   #40,d1
00005042  0000 5060       ori.b   #60,d0
00005046  0000 0000       ori.b   #0,d0
0000504a  .... ....       [6 more]
-------------------------------
00005062  0000 001d       ori.b   #1d,d0
00005066  000a 0002       ori.b   #2,a2
0000506a  0000 5078       ori.b   #78,d0
0000506e  0300            btst.l  d1,d0
00005070  0000 0000       ori.b   #0,d0
00005074  .... ....       [1 more]
-------------------------------
00005078  3fff            move.w  ???
0000507a  ff3c            f-line
0000507c  3000            move.w  d0,d0
0000507e  3f3c 3000       move.w  #3000,-(sp)
00005082  033c 303f       btst.b  d1,#3f
00005086  f33c            f-line
00005088  303f            move.w  ???
0000508a  f33c            f-line
0000508c  303f            move.w  ???
0000508e  f33c            f-line
00005090  303f            move.w  ???
00005092  f33c            f-line
00005094  3f3f            move.w  ???
00005096  f33c            f-line
00005098  3f00            move.w  d0,-(sp)
0000509a  033c 3fff       btst.b  d1,#ff
0000509e  ff3c            f-line
000050a0  0000 0000       ori.b   #0,d0
000050a4  0fff            bset.b  d7,???
000050a6  c000            and.b   d0,d0
000050a8  0f00            btst.l  d7,d0
000050aa  0000 0f00       ori.b   #0,d0
000050ae  0000 0f00       ori.b   #0,d0
000050b2  0000 0f00       ori.b   #0,d0
000050b6  0000 0f00       ori.b   #0,d0
000050ba  0000 0000       ori.b   #0,d0
000050be  .... ....       [23 more]
-------------------------------
0000511a  0000 ffcc       ori.b   #cc,d0
0000511e  0000 0018       ori.b   #18,d0
00005122  000a 0014       ori.b   #14,a2
00005126  0001 8060       ori.b   #60,d1
0000512a  0000 5148       ori.b   #48,d0
0000512e  0000 0000       ori.b   #0,d0
00005132  .... ....       [6 more]
-------------------------------
0000514a  0000 0018       ori.b   #18,d0
0000514e  000a 0002       ori.b   #2,a2
00005152  0000 5160       ori.b   #60,d0
00005156  0300            btst.l  d1,d0
00005158  0000 0000       ori.b   #0,d0
0000515c  .... ....       [1 more]
-------------------------------
00005160  3fff            move.w  ???
00005162  ff00            f-line
00005164  3000            move.w  d0,d0
00005166  3f00            move.w  d0,-(sp)
00005168  33ff            move.w  ???
0000516a  3f00            move.w  d0,-(sp)
0000516c  3300            move.w  d0,-(a1)
0000516e  0300            btst.l  d1,d0
00005170  3300            move.w  d0,-(a1)
00005172  0300            btst.l  d1,d0
00005174  3300            move.w  d0,-(a1)
00005176  0300            btst.l  d1,d0
00005178  3000            move.w  d0,d0
0000517a  0300            btst.l  d1,d0
0000517c  3f00            move.w  d0,-(sp)
0000517e  0300            btst.l  d1,d0
00005180  3f00            move.w  d0,-(sp)
00005182  0300            btst.l  d1,d0
00005184  3fff            move.w  ???
00005186  ff00            f-line
00005188  0000 0000       ori.b   #0,d0
0000518c  .... ....       [2 more]
-------------------------------
00005194  00ff            
00005196  fc00            f-line
00005198  00ff            
0000519a  fc00            f-line
0000519c  00ff            
0000519e  fc00            f-line
000051a0  00ff            
000051a2  fc00            f-line
000051a4  00ff            
000051a6  fc00            f-line
000051a8  00ff            
000051aa  fc00            f-line
000051ac  0000 0000       ori.b   #0,d0
000051b0  .... ....       [21 more]
-------------------------------
00005204  fff1            f-line
00005206  fff8            f-line
00005208  0010 0009       ori.b   #9,(a0)
0000520c  001c 0000       ori.b   #0,(a4)+
00005210  8010            or.b    (a0),d0
00005212  0000 5230       ori.b   #30,d0
00005216  0000 0000       ori.b   #0,d0
0000521a  .... ....       [6 more]
-------------------------------
00005232  0000 0010       ori.b   #10,d0
00005236  0009 0001       ori.b   #1,a1
0000523a  0000 5248       ori.b   #48,d0
0000523e  0100            btst.l  d0,d0
00005240  0000 0000       ori.b   #0,d0
00005244  .... ....       [1 more]
-------------------------------
00005248  ffff            f-line
0000524a  c0ff            mulu.w  ???
0000524c  ccff            mulu.w  ???
0000524e  c003            and.b   d3,d0
00005250  fcf3            f-line
00005252  fcf3            f-line
00005254  fcf3            f-line
00005256  fc03            f-line
00005258  ffff            f-line
0000525a  0000 0000       ori.b   #0,d0
0000525e  .... ....       [5 more]
-------------------------------
00005272  0000 0004       ori.b   #4,d0
00005276  0000 0018       ori.b   #18,d0
0000527a  000a 0004       ori.b   #4,a2
0000527e  0001 8080       ori.b   #80,d1
00005282  0000 52a0       ori.b   #a0,d0
00005286  0000 0000       ori.b   #0,d0
0000528a  .... ....       [5 more]
-------------------------------
0000529e  0000 fffc       ori.b   #fc,d0
000052a2  0000 001c       ori.b   #1c,d0
000052a6  000a 0002       ori.b   #2,a2
000052aa  0000 52b8       ori.b   #b8,d0
000052ae  0300            btst.l  d1,d0
000052b0  0000 0000       ori.b   #0,d0
000052b4  .... ....       [1 more]
-------------------------------
000052b8  f3ff            f-line
000052ba  ffc0            f-line
000052bc  f300            f-line
000052be  00c0            
000052c0  f33f            f-line
000052c2  fcc0            f-line
000052c4  f33f            f-line
000052c6  fcc0            f-line
000052c8  f33c            f-line
000052ca  3cc0            move.w  d0,(a6)+
000052cc  f33c            f-line
000052ce  3cc0            move.w  d0,(a6)+
000052d0  f33f            f-line
000052d2  fcc0            f-line
000052d4  f33f            f-line
000052d6  fcc0            f-line
000052d8  f300            f-line
000052da  00c0            
000052dc  f3ff            f-line
000052de  ffc0            f-line
000052e0  0000 0000       ori.b   #0,d0
000052e4  .... ....       [3 more]
-------------------------------
000052f0  0003 c000       ori.b   #0,d3
000052f4  0003 c000       ori.b   #0,d3
000052f8  0000 0000       ori.b   #0,d0
000052fc  .... ....       [24 more]
-------------------------------
0000535c  ffe4            f-line
0000535e  0000 001a       ori.b   #1a,d0
00005362  000a 0014       ori.b   #14,a2
00005366  0001 c050       ori.b   #50,d1
0000536a  0000 5388       ori.b   #88,d0
0000536e  0000 0000       ori.b   #0,d0
00005372  .... ....       [6 more]
-------------------------------
0000538a  0000 001d       ori.b   #1d,d0
0000538e  000a 0002       ori.b   #2,a2
00005392  0000 53a0       ori.b   #a0,d0
00005396  0300            btst.l  d1,d0
00005398  0000 0000       ori.b   #0,d0
0000539c  .... ....       [1 more]
-------------------------------
000053a0  3fff            move.w  ???
000053a2  ff3c            f-line
000053a4  3000            move.w  d0,d0
000053a6  3f3c 3000       move.w  #3000,-(sp)
000053aa  033c 303f       btst.b  d1,#3f
000053ae  f33c            f-line
000053b0  303f            move.w  ???
000053b2  f33c            f-line
000053b4  303f            move.w  ???
000053b6  f33c            f-line
000053b8  303f            move.w  ???
000053ba  f33c            f-line
000053bc  3f3f            move.w  ???
000053be  f33c            f-line
000053c0  3f00            move.w  d0,-(sp)
000053c2  033c 3fff       btst.b  d1,#ff
000053c6  ff3c            f-line
000053c8  0000 0000       ori.b   #0,d0
000053cc  0fff            bset.b  d7,???
000053ce  c000            and.b   d0,d0
000053d0  0f00            btst.l  d7,d0
000053d2  0000 0f00       ori.b   #0,d0
000053d6  0000 0f00       ori.b   #0,d0
000053da  0000 0f00       ori.b   #0,d0
000053de  0000 0f00       ori.b   #0,d0
000053e2  0000 0000       ori.b   #0,d0
000053e6  .... ....       [23 more]
-------------------------------
00005442  0000 ffcc       ori.b   #cc,d0
00005446  0000 0018       ori.b   #18,d0
0000544a  000a 0014       ori.b   #14,a2
0000544e  0001 c070       ori.b   #70,d1
00005452  0000 5470       ori.b   #70,d0
00005456  0000 0000       ori.b   #0,d0
0000545a  .... ....       [6 more]
-------------------------------
00005472  0000 0018       ori.b   #18,d0
00005476  000a 0002       ori.b   #2,a2
0000547a  0000 5488       ori.b   #88,d0
0000547e  0300            btst.l  d1,d0
00005480  0000 0000       ori.b   #0,d0
00005484  .... ....       [1 more]
-------------------------------
00005488  3fff            move.w  ???
0000548a  ff00            f-line
0000548c  3000            move.w  d0,d0
0000548e  3f00            move.w  d0,-(sp)
00005490  33ff            move.w  ???
00005492  3f00            move.w  d0,-(sp)
00005494  3300            move.w  d0,-(a1)
00005496  0300            btst.l  d1,d0
00005498  3300            move.w  d0,-(a1)
0000549a  0300            btst.l  d1,d0
0000549c  3300            move.w  d0,-(a1)
0000549e  0300            btst.l  d1,d0
000054a0  3000            move.w  d0,d0
000054a2  0300            btst.l  d1,d0
000054a4  3f00            move.w  d0,-(sp)
000054a6  0300            btst.l  d1,d0
000054a8  3f00            move.w  d0,-(sp)
000054aa  0300            btst.l  d1,d0
000054ac  3fff            move.w  ???
000054ae  ff00            f-line
000054b0  0000 0000       ori.b   #0,d0
000054b4  .... ....       [2 more]
-------------------------------
000054bc  00ff            
000054be  fc00            f-line
000054c0  00ff            
000054c2  fc00            f-line
000054c4  00ff            
000054c6  fc00            f-line
000054c8  00ff            
000054ca  fc00            f-line
000054cc  00ff            
000054ce  fc00            f-line
000054d0  00ff            
000054d2  fc00            f-line
000054d4  0000 0000       ori.b   #0,d0
000054d8  .... ....       [20 more]
-------------------------------
00005528  0002 0000       ori.b   #0,d2
0000552c  0009 0008       ori.b   #8,a1
00005530  0001 0000       ori.b   #0,d1
00005534  5540            subq.w  #2,d0
00005536  0100            btst.l  d0,d0
00005538  0000 0000       ori.b   #0,d0
0000553c  .... ....       [1 more]
-------------------------------
00005540  fc70            f-line
00005542  fc70            f-line
00005544  f9f0            f-line
00005546  f9f0            f-line
00005548  33f0 13f0       move.w  ???[68020+]
0000554c  87f0 c7f0       divs.w  ???[68020+]
00005550  0000 0000       ori.b   #0,d0
00005554  .... ....       [4 more]
-------------------------------
00005564  000e 0008       ori.b   #8,a6
00005568  0001 0000       ori.b   #0,d1
0000556c  5578 0100       subq.w  #2,100
00005570  0000 0000       ori.b   #0,d0
00005574  .... ....       [1 more]
-------------------------------
00005578  8004            or.b    d4,d0
0000557a  00e0            
0000557c  01e0            bset.b  d0,-(a0)
0000557e  0360            bchg.b  d1,-(a0)
00005580  0660 0fe0       addi.w  #fe0,-(a0)
00005584  3cf0 8004       move.w  4(a0,a0.w*1),(a6)+
00005588  0000 0000       ori.b   #0,d0
0000558c  .... ....       [4 more]
-------------------------------
0000559c  fff0            f-line
0000559e  0000 0011       ori.b   #11,d0
000055a2  000a 0014       ori.b   #14,a2
000055a6  0001 8040       ori.b   #40,d1
000055aa  0000 55c8       ori.b   #c8,d0
000055ae  0000 0000       ori.b   #0,d0
000055b2  .... ....       [6 more]
-------------------------------
000055ca  0000 0011       ori.b   #11,d0
000055ce  000a 0002       ori.b   #2,a2
000055d2  0000 55e0       ori.b   #e0,d0
000055d6  0300            btst.l  d1,d0
000055d8  0000 0000       ori.b   #0,d0
000055dc  .... ....       [1 more]
-------------------------------
000055e0  3fff            move.w  ???
000055e2  8000            or.b    d0,d0
000055e4  301f            move.w  (sp)+,d0
000055e6  8000            or.b    d0,d0
000055e8  3001            move.w  d1,d0
000055ea  8000            or.b    d0,d0
000055ec  3039 8000 3039  move.w  80003039,d0
000055f2  8000            or.b    d0,d0
000055f4  3039 8000 3039  move.w  80003039,d0
000055fa  8000            or.b    d0,d0
000055fc  3f39 8000 3f01  move.w  80003f01,-(sp)
00005602  8000            or.b    d0,d0
00005604  3fff            move.w  ???
00005606  8000            or.b    d0,d0
00005608  0000 0000       ori.b   #0,d0
0000560c  0fe0            bset.b  d7,-(a0)
0000560e  0000 0f00       ori.b   #0,d0
00005612  0000 0f00       ori.b   #0,d0
00005616  0000 0f00       ori.b   #0,d0
0000561a  0000 0f00       ori.b   #0,d0
0000561e  0000 0f00       ori.b   #0,d0
00005622  0000 0000       ori.b   #0,d0
00005626  .... ....       [23 more]
-------------------------------
00005682  0000 ffdf       ori.b   #df,d0
00005686  0000 0011       ori.b   #11,d0
0000568a  000a 0014       ori.b   #14,a2
0000568e  0001 8060       ori.b   #60,d1
00005692  0000 56b0       ori.b   #b0,d0
00005696  0000 0000       ori.b   #0,d0
0000569a  .... ....       [6 more]
-------------------------------
000056b2  0000 0011       ori.b   #11,d0
000056b6  000a 0002       ori.b   #2,a2
000056ba  0000 56c8       ori.b   #c8,d0
000056be  0300            btst.l  d1,d0
000056c0  0000 0000       ori.b   #0,d0
000056c4  .... ....       [1 more]
-------------------------------
000056c8  3fff            move.w  ???
000056ca  8000            or.b    d0,d0
000056cc  301f            move.w  (sp)+,d0
000056ce  8000            or.b    d0,d0
000056d0  339f 8000       move.w  (sp)+,0(a1,a0.w*1)
000056d4  3301            move.w  d1,-(a1)
000056d6  8000            or.b    d0,d0
000056d8  3301            move.w  d1,-(a1)
000056da  8000            or.b    d0,d0
000056dc  3301            move.w  d1,-(a1)
000056de  8000            or.b    d0,d0
000056e0  3001            move.w  d1,d0
000056e2  8000            or.b    d0,d0
000056e4  3f01            move.w  d1,-(sp)
000056e6  8000            or.b    d0,d0
000056e8  3f01            move.w  d1,-(sp)
000056ea  8000            or.b    d0,d0
000056ec  3fff            move.w  ???
000056ee  8000            or.b    d0,d0
000056f0  0000 0000       ori.b   #0,d0
000056f4  .... ....       [2 more]
-------------------------------
000056fc  00fe            
000056fe  0000 00fe       ori.b   #fe,d0
00005702  0000 00fe       ori.b   #fe,d0
00005706  0000 00fe       ori.b   #fe,d0
0000570a  0000 00fe       ori.b   #fe,d0
0000570e  0000 00fe       ori.b   #fe,d0
00005712  0000 0000       ori.b   #0,d0
00005716  .... ....       [21 more]
-------------------------------
0000576a  0000 fff6       ori.b   #f6,d0
0000576e  fff7            f-line
00005770  000b 000a       ori.b   #a,a3
00005774  001c 0000       ori.b   #0,(a4)+
00005778  8010            or.b    (a0),d0
0000577a  0000 5798       ori.b   #98,d0
0000577e  0000 0000       ori.b   #0,d0
00005782  .... ....       [6 more]
-------------------------------
0000579a  0000 000b       ori.b   #b,d0
0000579e  000a 0002       ori.b   #2,a2
000057a2  0000 57b0       ori.b   #b0,d0
000057a6  0300            btst.l  d1,d0
000057a8  0000 0000       ori.b   #0,d0
000057ac  .... ....       [1 more]
-------------------------------
000057b0  ffe0            f-line
000057b2  c7e0            muls.w  -(a0),d3
000057b4  c7e0            muls.w  -(a0),d3
000057b6  c7e0            muls.w  -(a0),d3
000057b8  f860            f-line
000057ba  f860            f-line
000057bc  f860            f-line
000057be  f860            f-line
000057c0  f860            f-line
000057c2  ffe0            f-line
000057c4  0000 3800       ori.b   #0,d0
000057c8  3800            move.w  d0,d4
000057ca  3800            move.w  d0,d4
000057cc  0780            bclr.l  d3,d0
000057ce  0780            bclr.l  d3,d0
000057d0  0780            bclr.l  d3,d0
000057d2  0780            bclr.l  d3,d0
000057d4  0780            bclr.l  d3,d0
000057d6  0000 0000       ori.b   #0,d0
000057da  .... ....       [11 more]
-------------------------------
00005806  0000 000e       ori.b   #e,d0
0000580a  000a 0004       ori.b   #4,a2
0000580e  0001 8080       ori.b   #80,d1
00005812  0000 5830       ori.b   #30,d0
00005816  0000 0000       ori.b   #0,d0
0000581a  .... ....       [6 more]
-------------------------------
00005832  0000 000e       ori.b   #e,d0
00005836  000a 0002       ori.b   #2,a2
0000583a  0000 5848       ori.b   #48,d0
0000583e  0300            btst.l  d1,d0
00005840  0000 0000       ori.b   #0,d0
00005844  .... ....       [1 more]
-------------------------------
00005848  ffff            f-line
0000584a  c00c            and.b   a4,d0
0000584c  cfcc            muls.w  a4,d7
0000584e  cfcc            muls.w  a4,d7
00005850  cccc            mulu.w  a4,d6
00005852  cccc            mulu.w  a4,d6
00005854  cfcc            muls.w  a4,d7
00005856  cfcc            muls.w  a4,d7
00005858  c00c            and.b   a4,d0
0000585a  fffc            f-line
0000585c  0000 0000       ori.b   #0,d0
00005860  .... ....       [1 more]
-------------------------------
00005864  0300            btst.l  d1,d0
00005866  0300            btst.l  d1,d0
00005868  0000 0000       ori.b   #0,d0
0000586c  .... ....       [12 more]
-------------------------------
0000589c  fff0            f-line
0000589e  0000 0011       ori.b   #11,d0
000058a2  000a 0014       ori.b   #14,a2
000058a6  0001 c050       ori.b   #50,d1
000058aa  0000 58c8       ori.b   #c8,d0
000058ae  0000 0000       ori.b   #0,d0
000058b2  .... ....       [6 more]
-------------------------------
000058ca  0000 0011       ori.b   #11,d0
000058ce  000a 0002       ori.b   #2,a2
000058d2  0000 58e0       ori.b   #e0,d0
000058d6  0300            btst.l  d1,d0
000058d8  0000 0000       ori.b   #0,d0
000058dc  .... ....       [1 more]
-------------------------------
000058e0  3fff            move.w  ???
000058e2  8000            or.b    d0,d0
000058e4  301f            move.w  (sp)+,d0
000058e6  8000            or.b    d0,d0
000058e8  3001            move.w  d1,d0
000058ea  8000            or.b    d0,d0
000058ec  3039 8000 3039  move.w  80003039,d0
000058f2  8000            or.b    d0,d0
000058f4  3039 8000 3039  move.w  80003039,d0
000058fa  8000            or.b    d0,d0
000058fc  3f39 8000 3f01  move.w  80003f01,-(sp)
00005902  8000            or.b    d0,d0
00005904  3fff            move.w  ???
00005906  8000            or.b    d0,d0
00005908  0000 0000       ori.b   #0,d0
0000590c  0fe0            bset.b  d7,-(a0)
0000590e  0000 0f00       ori.b   #0,d0
00005912  0000 0f00       ori.b   #0,d0
00005916  0000 0f00       ori.b   #0,d0
0000591a  0000 0f00       ori.b   #0,d0
0000591e  0000 0f00       ori.b   #0,d0
00005922  0000 0000       ori.b   #0,d0
00005926  .... ....       [23 more]
-------------------------------
00005982  0000 ffdf       ori.b   #df,d0
00005986  0000 0011       ori.b   #11,d0
0000598a  000a 0014       ori.b   #14,a2
0000598e  0001 c070       ori.b   #70,d1
00005992  0000 59b0       ori.b   #b0,d0
00005996  0000 0000       ori.b   #0,d0
0000599a  .... ....       [6 more]
-------------------------------
000059b2  0000 0011       ori.b   #11,d0
000059b6  000a 0002       ori.b   #2,a2
000059ba  0000 59c8       ori.b   #c8,d0
000059be  0300            btst.l  d1,d0
000059c0  0000 0000       ori.b   #0,d0
000059c4  .... ....       [1 more]
-------------------------------
000059c8  3fff            move.w  ???
000059ca  8000            or.b    d0,d0
000059cc  301f            move.w  (sp)+,d0
000059ce  8000            or.b    d0,d0
000059d0  339f 8000       move.w  (sp)+,0(a1,a0.w*1)
000059d4  3301            move.w  d1,-(a1)
000059d6  8000            or.b    d0,d0
000059d8  3301            move.w  d1,-(a1)
000059da  8000            or.b    d0,d0
000059dc  3301            move.w  d1,-(a1)
000059de  8000            or.b    d0,d0
000059e0  3001            move.w  d1,d0
000059e2  8000            or.b    d0,d0
000059e4  3f01            move.w  d1,-(sp)
000059e6  8000            or.b    d0,d0
000059e8  3f01            move.w  d1,-(sp)
000059ea  8000            or.b    d0,d0
000059ec  3fff            move.w  ???
000059ee  8000            or.b    d0,d0
000059f0  0000 0000       ori.b   #0,d0
000059f4  .... ....       [2 more]
-------------------------------
000059fc  00fe            
000059fe  0000 00fe       ori.b   #fe,d0
00005a02  0000 00fe       ori.b   #fe,d0
00005a06  0000 00fe       ori.b   #fe,d0
00005a0a  0000 00fe       ori.b   #fe,d0
00005a0e  0000 00fe       ori.b   #fe,d0
00005a12  0000 0000       ori.b   #0,d0
00005a16  .... ....       [20 more]
-------------------------------
00005a66  0000 0900       ori.b   #0,d0
00005a6a  0005 0000       ori.b   #0,d5
00005a6e  0000 0001       ori.b   #1,d0
00005a72  86a0            or.l    -(a0),d3
00005a74  0000 0000       ori.b   #0,d0
00005a78  000c 3500       ori.b   #0,a4
00005a7c  0000 0001       ori.b   #1,d0
00005a80  0007 a120       ori.b   #20,d7
00005a84  0000 0000       ori.b   #0,d0
00005a88  0000 fc00       ori.b   #0,d0
00005a8c  7c00            moveq   #0,d6
00005a8e  fe00            f-line
00005a90  7c00            moveq   #0,d6
00005a92  8600            or.b    d0,d3
00005a94  7800            moveq   #0,d4
00005a96  8c00            or.b    d0,d6
00005a98  7c00            moveq   #0,d6
00005a9a  8600            or.b    d0,d3
00005a9c  6e00 9300       bgt.w   ffffed9e
00005aa0  0700            btst.l  d3,d0
00005aa2  6980            bvs.b   5a24
00005aa4  0380            bclr.l  d1,d0
00005aa6  04c0            
00005aa8  01c0            bset.l  d0,d0
00005aaa  0260 0080       andi.w  #80,-(a0)
00005aae  0140            bchg.l  d0,d0
00005ab0  0000 0080       ori.b   #80,d0
00005ab4  0000 0000       ori.b   #0,d0
00005ab8  .... ....       [5 more]
-------------------------------
00005acc  feff            f-line
00005ace  0d22            btst.b  d6,-(a2)
00005ad0  0000 0fca       ori.b   #ca,d0
00005ad4  0002 005a       ori.b   #5a,d2
00005ad8  0fff            bset.b  d7,???
00005ada  0002 0f80       ori.b   #80,d2
00005ade  0000 0081       ori.b   #81,d0
00005ae2  002c 0000 0007  ori.b   #0,7(a4)
00005ae8  6765            beq.b   5b4f
00005aea  6e65            bgt.b   5b51
00005aec  7269            moveq   #69,d1
00005aee  6300 0000       bls.w   5af0
00005af2  0000 0000       ori.b   #0,d0
00005af6  .... ....       [5 more]
-------------------------------
00005b0a  0000 0005       ori.b   #5,d0
00005b0e  004b 0000       ori.w   #0,a3
00005b12  0000 0001       ori.b   #1,d0
00005b16  0002 0020       ori.b   #20,d2
00005b1a  0042 0000       ori.w   #0,d2
00005b1e  0000 0000       ori.b   #0,d0
00005b22  .... ....       [11 more]
-------------------------------
00005b4e  0000 4ef9       ori.b   #f9,d0
00005b52  00fe            
00005b54  4228 4ef9       clr.b   4ef9(a0)
00005b58  00fe            
00005b5a  4232 4ef9       clr.b   -7(a2,d4.l*8)
00005b5e  00fe            
00005b60  41ac 4ef9       chk.w   4ef9(a4),d0
00005b64  00fe            
00005b66  40e4            move.w  sr,-(a4)
00005b68  4ef9 00fe 3fd4  jmp     fe3fd4
00005b6e  4ef9 00fe 3fee  jmp     fe3fee
00005b74  4ef9 00fe 3fca  jmp     fe3fca
00005b7a  4ef9 00fe 3fc4  jmp     fe3fc4
00005b80  4ef9 00fe 3f9c  jmp     fe3f9c
00005b86  4ef9 00fe 3f60  jmp     fe3f60
00005b8c  4ef9 00fe 3f28  jmp     fe3f28
00005b92  4ef9 00fe 3ed4  jmp     fe3ed4
00005b98  4ef9 00fe 3eac  jmp     fe3eac
00005b9e  4ef9 00fe 3e48  jmp     fe3e48
00005ba4  4ef9 00fe 3e9a  jmp     fe3e9a
00005baa  4ef9 00fe 3e86  jmp     fe3e86
00005bb0  0000 5bf6       ori.b   #f6,d0
00005bb4  0000 4984       ori.b   #84,d0
00005bb8  0900            btst.l  d4,d0
00005bba  00fe            
00005bbc  3dbe            move.w  ???
00005bbe  0400 0060       subi.b  #60,d0
00005bc2  0022 0022       ori.b   #22,-(a2)
00005bc6  0001 00fe       ori.b   #fe,d1
00005bca  003e fcb6       move.w  #fcb6,???
00005bce  0000 0000       ori.b   #0,d0
00005bd2  .... ....       [1 more]
-------------------------------
00005bd6  0000 4ef9       ori.b   #f9,d0
00005bda  00fe            
00005bdc  b178 4ef9       eor.w   d0,4ef9
00005be0  00fe            
00005be2  b37a 4ef9       eor.w   d1,aadd(pc)
00005be6  00fe            
00005be8  b36e 4ef9       eor.w   d1,4ef9(a6)
00005bec  00fe            
00005bee  b362            eor.w   d1,-(a2)
00005bf0  4ef9 00fe b354  jmp     feb354
00005bf6  0000 07f4       ori.b   #f4,d0
00005bfa  0000 5bb0       ori.b   #b0,d0
00005bfe  0000 00fe       ori.b   #fe,d0
00005c02  b07a 0400       cmp.w   6004(pc),d0
00005c06  001e 0044       ori.b   #44,(a6)+
00005c0a  0022 0001       ori.b   #1,-(a2)
00005c0e  0000 0000       ori.b   #0,d0
00005c12  0ee9            bset.b  ???
00005c14  0000 0001       ori.b   #1,d0
00005c18  0000 0676       ori.b   #76,d0
00005c1c  0000 5c20       ori.b   #20,d0
00005c20  0000 0000       ori.b   #0,d0
00005c24  0000 5c1c       ori.b   #1c,d0
00005c28  0000 0000       ori.b   #0,d0
00005c2c  .... ....       [5 more]
-------------------------------
00005c40  444f            neg.w   sp
00005c42  5300            subq.b  #1,d0
00005c44  8f1b            or.b    d7,(a3)+
00005c46  6c12            bge.b   5c5a
00005c48  0000 0000       ori.b   #0,d0
00005c4c  4ff9 0000 0400  lea.l   400,sp
00005c52  4df9 00df f000  lea.l   dff000,a6
00005c58  4bf9 00bf e001  lea.l   ciaapra,a5
00005c5e  49f9 00bf d000  lea.l   ciabpra,a4
00005c64  3d7c 7fff 0096  move.w  #7fff,dmacon(a6)
00005c6a  3d7c 7fff 009a  move.w  #7fff,intena(a6)
00005c70  41fa 0018       lea.l   5c8a(pc),a0
00005c74  43f9 0000 0800  lea.l   800,a1
00005c7a  303c 00ff       move.w  #ff,d0
00005c7e  22d8            move.l  (a0)+,(a1)+
00005c80  51c8 fffc       dbf.w   d0,5c7e
00005c84  4ef9 0000 0800  jmp     800
00005c8a  3d7c 0000 0180  move.w  #0,color00(a6)
00005c90  3d7c 8210 0096  move.w  #8210,dmacon(a6)
00005c96  4eba 0064       jsr     5cfc(pc)
00005c9a  4eba 008a       jsr     5d26(pc)
00005c9e  662a            bne.b   5cca
00005ca0  4eba 024a       jsr     5eec(pc)
00005ca4  4eba 0246       jsr     5eec(pc)
00005ca8  4eba 009a       jsr     5d44(pc)
00005cac  6bfe            bmi.b   5cac
00005cae  41f9 0007 8006  lea.l   78006,a0
00005cb4  43f9 0006 8000  lea.l   68000,a1
00005cba  303c 05db       move.w  #5db,d0
00005cbe  22d8            move.l  (a0)+,(a1)+
00005cc0  51c8 fffc       dbf.w   d0,5cbe
00005cc4  4ef9 0006 8000  jmp     68000
00005cca  4eba 0220       jsr     5eec(pc)
00005cce  4eba 021c       jsr     5eec(pc)
00005cd2  3d7c 000f 0180  move.w  #f,color00(a6)
00005cd8  4eba 006a       jsr     5d44(pc)
00005cdc  6a08            bpl.b   5ce6
00005cde  3d7c 0f00 0180  move.w  #f00,color00(a6)
00005ce4  60f8            bra.b   5cde
00005ce6  4eba 0204       jsr     5eec(pc)
00005cea  303a 02e0       move.w  5fcc(pc),d0
00005cee  b07c 009e       cmp.w   #9e,d0
00005cf2  66de            bne.b   5cd2
00005cf4  4eba 0242       jsr     5f38(pc)
00005cf8  6000 ffa6       bra.w   5ca0
00005cfc  3d7c 4000 0024  move.w  #4000,dsklen(a6)
00005d02  3d40 007e       move.w  d0,dsksync(a6)
00005d06  3d7c 7f00 009e  move.w  #7f00,adkcon(a6)
00005d0c  3d7c 9d00 009e  move.w  #9d00,adkcon(a6)
00005d12  197c 00ff 0300  move.b  #ff,ciabddrb(a4)
00005d18  1b7c 0003 0200  move.b  #3,ciaaddra(a5)
00005d1e  4eba 0258       jsr     5f78(pc)
00005d22  4efa 0214       jmp     5f38(pc)
00005d26  302e 0012       move.w  pot0dat(a6),d0
00005d2a  323c 0032       move.w  #32,d1
00005d2e  5242            addq.w  #1,d2
00005d30  b06e 0012       cmp.w   pot0dat(a6),d0
00005d34  6608            bne.b   5d3e
00005d36  51c9 fff6       dbf.w   d1,5d2e
00005d3a  4240            clr.w   d0
00005d3c  4e75            rts
00005d3e  303c ffff       move.w  #ffff,d0
00005d42  4e75            rts
00005d44  4df9 00df f000  lea.l   dff000,a6
00005d4a  33fc 0005 0000  move.w  #5,380
00005d50  0380 
00005d52  303c a291       move.w  #a291,d0
00005d56  4eba 00f8       jsr     5e50(pc)
00005d5a  41f9 0007 8fa0  lea.l   78fa0,a0
00005d60  43f9 0007 0000  lea.l   70000,a1
00005d66  303c 07d5       move.w  #7d5,d0
00005d6a  4eba 023c       jsr     5fa8(pc)
00005d6e  41f9 0007 8fa0  lea.l   78fa0,a0
00005d74  323c 0002       move.w  #2,d1
00005d78  4eba 010a       jsr     5e84(pc)
00005d7c  4a41            tst.w   d1
00005d7e  6b20            bmi.b   5da0
00005d80  5379 0000 0380  subq.w  #1,380
00005d86  6b00 00c4       bmi.w   5e4c
00005d8a  b27c 0001       cmp.w   #1,d1
00005d8e  660a            bne.b   5d9a
00005d90  0c79 0003 0000  cmpi.w  #3,380
00005d96  0380 
00005d98  6eb8            bgt.b   5d52
00005d9a  4eba 0126       jsr     5ec2(pc)
00005d9e  60b2            bra.b   5d52
00005da0  33fc 0005 0000  move.w  #5,380
00005da6  0380 
00005da8  303c 8a91       move.w  #8a91,d0
00005dac  4eba 00a2       jsr     5e50(pc)
00005db0  41f9 0007 87d0  lea.l   787d0,a0
00005db6  43f9 0007 0000  lea.l   70000,a1
00005dbc  303c 07d5       move.w  #7d5,d0
00005dc0  4eba 01e6       jsr     5fa8(pc)
00005dc4  41f9 0007 87d0  lea.l   787d0,a0
00005dca  323c 0001       move.w  #1,d1
00005dce  4eba 00b4       jsr     5e84(pc)
00005dd2  4a41            tst.w   d1
00005dd4  6b1e            bmi.b   5df4
00005dd6  5379 0000 0380  subq.w  #1,380
00005ddc  6b6e            bmi.b   5e4c
00005dde  b27c 0001       cmp.w   #1,d1
00005de2  660a            bne.b   5dee
00005de4  0c79 0003 0000  cmpi.w  #3,380
00005dea  0380 
00005dec  6eba            bgt.b   5da8
00005dee  4eba 00d2       jsr     5ec2(pc)
00005df2  60b4            bra.b   5da8
00005df4  33fc 0005 0000  move.w  #5,380
00005dfa  0380 
00005dfc  303c a245       move.w  #a245,d0
00005e00  4eba 004e       jsr     5e50(pc)
00005e04  41f9 0007 8000  lea.l   78000,a0
00005e0a  43f9 0007 0000  lea.l   70000,a1
00005e10  303c 07d5       move.w  #7d5,d0
00005e14  4eba 0192       jsr     5fa8(pc)
00005e18  41f9 0007 8000  lea.l   78000,a0
00005e1e  323c 0000       move.w  #0,d1
00005e22  4eba 0060       jsr     5e84(pc)
00005e26  4a41            tst.w   d1
00005e28  6b1e            bmi.b   5e48
00005e2a  5379 0000 0380  subq.w  #1,380
00005e30  6b1a            bmi.b   5e4c
00005e32  b27c 0001       cmp.w   #1,d1
00005e36  660a            bne.b   5e42
00005e38  0c79 0003 0000  cmpi.w  #3,380
00005e3e  0380 
00005e40  6eba            bgt.b   5dfc
00005e42  4eba 007e       jsr     5ec2(pc)
00005e46  60b4            bra.b   5dfc
00005e48  4240            clr.w   d0
00005e4a  4e75            rts
00005e4c  70ff            moveq   #-1,d0
00005e4e  4e75            rts
00005e50  3d7c 0002 009c  move.w  #2,intreq(a6)
00005e56  2d7c 0007 0000  move.l  #70000,dskpt(a6)
00005e5c  0020 
00005e5e  3d40 007e       move.w  d0,dsksync(a6)
00005e62  3d7c 7f00 009e  move.w  #7f00,adkcon(a6)
00005e68  3d7c 9d00 009e  move.w  #9d00,adkcon(a6)
00005e6e  3d7c 4000 0024  move.w  #4000,dsklen(a6)
00005e74  3d7c 87d8 0024  move.w  #87d8,dsklen(a6)
00005e7a  3d7c 87d8 0024  move.w  #87d8,dsklen(a6)
00005e80  4efa 0058       jmp     5eda(pc)
00005e84  0c28 00ff 0001  cmpi.b  #ff,1(a0)
00005e8a  662a            bne.b   5eb6
00005e8c  303a 013e       move.w  5fcc(pc),d0
00005e90  b028 0002       cmp.b   2(a0),d0
00005e94  6624            bne.b   5eba
00005e96  b228 0003       cmp.b   3(a0),d1
00005e9a  661e            bne.b   5eba
00005e9c  2248            movea.l a0,a1
00005e9e  41e9 0006       lea.l   6(a1),a0
00005ea2  303c 03e7       move.w  #3e7,d0
00005ea6  4eba 011a       jsr     5fc2(pc)
00005eaa  2049            movea.l a1,a0
00005eac  b268 0004       cmp.w   4(a0),d1
00005eb0  660c            bne.b   5ebe
00005eb2  72ff            moveq   #-1,d1
00005eb4  4e75            rts
00005eb6  7201            moveq   #1,d1
00005eb8  4e75            rts
00005eba  7202            moveq   #2,d1
00005ebc  4e75            rts
00005ebe  7203            moveq   #3,d1
00005ec0  4e75            rts
00005ec2  4bfa 010a       lea.l   5fce(pc),a5
00005ec6  3aba 0104       move.w  5fcc(pc),(a5)
00005eca  4eba 006c       jsr     5f38(pc)
00005ece  3015            move.w  (a5),d0
00005ed0  4eba 001a       jsr     5eec(pc)
00005ed4  51c8 fffa       dbf.w   d0,5ed0
00005ed8  4e75            rts
00005eda  302e 001e       move.w  intreqr(a6),d0
00005ede  0240 0002       andi.w  #2,d0
00005ee2  67f6            beq.b   5eda
00005ee4  3d7c 0002 009c  move.w  #2,intreq(a6)
00005eea  4e75            rts
00005eec  47fa 00de       lea.l   5fcc(pc),a3
00005ef0  08ac 0001 0100  bclr.b  #1,ciabprb(a4)
00005ef6  3013            move.w  (a3),d0
00005ef8  5240            addq.w  #1,d0
00005efa  0c40 00a0       cmpi.w  #a0,d0
00005efe  6736            beq.b   5f36
00005f00  3680            move.w  d0,(a3)
00005f02  08ac 0002 0100  bclr.b  #2,ciabprb(a4)
00005f08  e248            lsr.w   #1,d0
00005f0a  6408            bcc.b   5f14
00005f0c  08ec 0002 0100  bset.b  #2,ciabprb(a4)
00005f12  6022            bra.b   5f36
00005f14  08ec 0000 0100  bset.b  #0,ciabprb(a4)
00005f1a  08ac 0000 0100  bclr.b  #0,ciabprb(a4)
00005f20  4e71            nop
00005f22  4e71            nop
00005f24  4e71            nop
00005f26  4e71            nop
00005f28  08ec 0000 0100  bset.b  #0,ciabprb(a4)
00005f2e  303c 1f40       move.w  #1f40,d0
00005f32  51c8 fffe       dbf.w   d0,5f32
00005f36  4e75            rts
00005f38  08ec 0001 0100  bset.b  #1,ciabprb(a4)
00005f3e  082d 0004 0000  btst.b  #4,0(a5)
00005f44  6724            beq.b   5f6a
00005f46  08ec 0000 0100  bset.b  #0,ciabprb(a4)
00005f4c  08ac 0000 0100  bclr.b  #0,ciabprb(a4)
00005f52  4e71            nop
00005f54  4e71            nop
00005f56  4e71            nop
00005f58  4e71            nop
00005f5a  08ec 0000 0100  bset.b  #0,ciabprb(a4)
00005f60  303c 1f40       move.w  #1f40,d0
00005f64  51c8 fffe       dbf.w   d0,5f64
00005f68  60d4            bra.b   5f3e
00005f6a  47fa 0060       lea.l   5fcc(pc),a3
00005f6e  4253            clr.w   (a3)
00005f70  08ac 0002 0100  bclr.b  #2,ciabprb(a4)
00005f76  4e75            rts
00005f78  08ec 0003 0100  bset.b  #3,ciabprb(a4)
00005f7e  08ac 0007 0100  bclr.b  #7,ciabprb(a4)
00005f84  08ac 0003 0100  bclr.b  #3,ciabprb(a4)
00005f8a  7004            moveq   #4,d0
00005f8c  4eba 0008       jsr     5f96(pc)
00005f90  51c8 fffa       dbf.w   d0,5f8c
00005f94  4e75            rts
00005f96  082c 0004 0d00  btst.b  #4,ciabicr(a4)
00005f9c  66f8            bne.b   5f96
00005f9e  082c 0004 0d00  btst.b  #4,ciabicr(a4)
00005fa4  67f8            beq.b   5f9e
00005fa6  4e75            rts
00005fa8  7200            moveq   #0,d1
00005faa  7407            moveq   #7,d2
00005fac  3619            move.w  (a1)+,d3
00005fae  e34b            lsl.w   #1,d3
00005fb0  e38b            lsl.l   #1,d3
00005fb2  51ca fffa       dbf.w   d2,5fae
00005fb6  4843            swap    d3
00005fb8  10c3            move.b  d3,(a0)+
00005fba  51c8 ffec       dbf.w   d0,5fa8
00005fbe  4e75            rts
00005fc0  0001 7200       ori.b   #0,d1
00005fc4  d258            add.w   (a0)+,d1
00005fc6  51c8 fffc       dbf.w   d0,5fc4
00005fca  4e75            rts
00005fcc  0000 0000       ori.b   #0,d0
00005fd0  0000 03ec       ori.b   #ec,d0
00005fd4  0000 0009       ori.b   #9,d0
00005fd8  0000 0000       ori.b   #0,d0
00005fdc  0000 010e       ori.b   #e,d0
00005fe0  0000 0142       ori.b   #42,d0
00005fe4  0000 0154       ori.b   #54,d0
00005fe8  0000 0164       ori.b   #64,d0
00005fec  0000 0198       ori.b   #98,d0
00005ff0  0000 01a8       ori.b   #a8,d0
00005ff4  0000 01b8       ori.b   #b8,d0
00005ff8  0000 01ec       ori.b   #ec,d0
00005ffc  0000 01fc       ori.b   #fc,d0
00006000  0000 0000       ori.b   #0,d0
00006004  0000 03f2       ori.b   #f2,d0
00006008  0000 0000       ori.b   #0,d0
0000600c  .... ....       [47 more]
-------------------------------
000060c8  0000 626c       ori.b   #6c,d0
000060cc  0000 6268       ori.b   #68,d0
000060d0  0000 0000       ori.b   #0,d0
000060d4  0000 0003       ori.b   #3,d0
000060d8  0000 60f0       ori.b   #f0,d0
000060dc  0000 019c       ori.b   #9c,d0
000060e0  0000 6290       ori.b   #90,d0
000060e4  0000 0200       ori.b   #0,d0
000060e8  0000 6490       ori.b   #90,d0
000060ec  0000 4004       ori.b   #4,d0
000060f0  0000 0000       ori.b   #0,d0
000060f4  .... ....       [1 more]
-------------------------------
000060f8  0400 00fe       subi.b  #fe,d0
000060fc  957e            sub.w   d2,???
000060fe  0009 0000       ori.b   #0,a1
00006102  621e            bhi.b   6122
00006104  0000 6108       ori.b   #8,d0
00006108  0000 0000       ori.b   #0,d0
0000610c  0000 6104       ori.b   #4,d0
00006110  0500            btst.l  d2,d0
00006112  0000 0001       ori.b   #1,d0
00006116  0050 ffff       ori.w   #ffff,(a0)
0000611a  ffff            f-line
0000611c  0000 0bb8       ori.b   #b8,d0
00006120  0000 3a98       ori.b   #98,d0
00006124  0a01 00a0       eori.b  #a0,d1
00006128  000d c000       ori.b   #0,a5
0000612c  0000 0000       ori.b   #0,d0
00006130  1077            ???
00006132  0000 0000       ori.b   #0,d0
00006136  18e2            move.b  -(a2),(a4)+
00006138  0001 0000       ori.b   #0,d1
0000613c  0000 0000       ori.b   #0,d0
00006140  6490            bcc.b   60d2
00006142  0000 6490       ori.b   #90,d0
00006146  0000 6040       ori.b   #40,d0
0000614a  0000 0000       ori.b   #0,d0
0000614e  0000 61b6       ori.b   #b6,d0
00006152  0000 61b2       ori.b   #b2,d0
00006156  0500            btst.l  d2,d0
00006158  00fe            
0000615a  957e            sub.w   d2,???
0000615c  0000 619e       ori.b   #9e,d0
00006160  0000 0000       ori.b   #0,d0
00006164  2f4e 0000       move.l  a6,0(sp)
00006168  2f78 0009 0000  move.l  9,0(sp)
0000616e  0000 0000       ori.b   #0,d0
00006172  0000 03e8       ori.b   #e8,d0
00006176  0000 2fca       ori.b   #ca,d0
0000617a  0000 43e4       ori.b   #e4,d0
0000617e  0500            btst.l  d2,d0
00006180  00fe            
00006182  957e            sub.w   d2,???
00006184  0000 60f0       ori.b   #f0,d0
00006188  0000 0000       ori.b   #0,d0
0000618c  2f4e 0000       move.l  a6,0(sp)
00006190  003f            move.l  d6,???
00006192  0009 0000       ori.b   #0,a1
00006196  0000 0009       ori.b   #9,d0
0000619a  0009 27c0       ori.b   #c0,a1
0000619e  0000 0000       ori.b   #0,d0
000061a2  .... ....       [1 more]
-------------------------------
000061a6  0400 00fe       subi.b  #fe,d0
000061aa  957e            sub.w   d2,???
000061ac  000a 0000       ori.b   #0,a2
000061b0  621e            bhi.b   61d0
000061b2  0000 61b6       ori.b   #b6,d0
000061b6  0000 0000       ori.b   #0,d0
000061ba  0000 61b2       ori.b   #b2,d0
000061be  0500            btst.l  d2,d0
000061c0  0000 0000       ori.b   #0,d0
000061c4  .... ....       [1 more]
-------------------------------
000061c8  0500            btst.l  d2,d0
000061ca  00fe            
000061cc  957e            sub.w   d2,???
000061ce  0000 619e       ori.b   #9e,d0
000061d2  0000 0000       ori.b   #0,d0
000061d6  .... ....       [3 more]
-------------------------------
000061e2  0000 60f0       ori.b   #f0,d0
000061e6  00fe            
000061e8  a372            a-line
000061ea  0000 0000       ori.b   #0,d0
000061ee  .... ....       [10 more]
-------------------------------
00006216  0000 0001       ori.b   #1,d0
0000621a  0000 0000       ori.b   #0,d0
0000621e  0000 081e       ori.b   #1e,d0
00006222  0000 3342       ori.b   #42,d0
00006226  0105            btst.l  d0,d5
00006228  00fe            
0000622a  957e            sub.w   d2,???
0000622c  0004 00ff       ori.b   #ff,d4
00006230  0000 ffff       ori.b   #ff,d0
00006234  0000 0300       ori.b   #0,d0
00006238  0000 0000       ori.b   #0,d0
0000623c  .... ....       [1 more]
-------------------------------
00006240  8000            or.b    d0,d0
00006242  0000 0000       ori.b   #0,d0
00006246  0000 00fc       ori.b   #fc,d0
0000624a  003f 0000       move.l  0(a0,d0.w*1),???
0000624e  0000 00fc       ori.b   #fc,d0
00006252  003f 0000       move.l  0(a0,d0.w*1),???
00006256  6436            bcc.b   628e
00006258  0000 6290       ori.b   #90,d0
0000625c  0000 6490       ori.b   #90,d0
00006260  0000 0000       ori.b   #0,d0
00006264  .... ....       [1 more]
-------------------------------
00006268  0000 60c8       ori.b   #c8,d0
0000626c  0000 0000       ori.b   #0,d0
00006270  0000 60c8       ori.b   #c8,d0
00006274  0000 0000       ori.b   #0,d0
00006278  .... ....       [1 more]
-------------------------------
0000627c  60c8            bra.b   6246
0000627e  0000 6282       ori.b   #82,d0
00006282  0000 0000       ori.b   #0,d0
00006286  0000 627e       ori.b   #7e,d0
0000628a  0000 0000       ori.b   #0,d0
0000628e  .... ....       [74 more]
-------------------------------
000063b6  0000 00fc       ori.b   #fc,d0
000063ba  08f4 0010 0000  bset.b  #0,0(a4,d0.w*1)
000063c0  3342 0000       move.w  d2,0(a1)
000063c4  0000 0000       ori.b   #0,d0
000063c8  0005 ff00       ori.b   #0,d5
000063cc  0506            btst.l  d2,d6
000063ce  0000 1980       ori.b   #80,d0
000063d2  0000 8808       ori.b   #8,d0
000063d6  0000 0505       ori.b   #5,d0
000063da  0000 0000       ori.b   #0,d0
000063de  .... ....       [1 more]
-------------------------------
000063e2  0000 621e       ori.b   #1e,d0
000063e6  00fe            
000063e8  aa2e            a-line
000063ea  0008 59f3       ori.b   #f3,a0
000063ee  994b            subx.w  -(a3),-(a4)
000063f0  00fc            
000063f2  08f4 0010 0000  bset.b  #0,0(a4,d0.w*1)
000063f8  3342 0000       move.w  d2,0(a1)
000063fc  0000 0000       ori.b   #0,d0
00006400  .... ....       [7 more]
-------------------------------
0000641c  621e            bhi.b   643c
0000641e  0000 6460       ori.b   #60,d0
00006422  0000 60f0       ori.b   #f0,d0
00006426  0000 88d0       ori.b   #d0,d0
0000642a  0000 0640       ori.b   #40,d0
0000642e  0000 0676       ori.b   #76,d0
00006432  00fc            
00006434  1f4c 00fc       move.b  a4,fc(sp)
00006438  08f4 0010 0000  bset.b  #0,0(a4,d0.w*1)
0000643e  3342 0000       move.w  d2,0(a1)
00006442  0000 0000       ori.b   #0,d0
00006446  .... ....       [7 more]
-------------------------------
00006462  621e            bhi.b   6482
00006464  0000 18e2       ori.b   #e2,d0
00006468  0000 60f0       ori.b   #f0,d0
0000646c  0000 0000       ori.b   #0,d0
00006470  0000 0640       ori.b   #40,d0
00006474  0000 0676       ori.b   #76,d0
00006478  00fc            
0000647a  1f4c 00fe       move.b  a4,fe(sp)
0000647e  aaf6            a-line
00006480  0000 4704       ori.b   #4,d0
00006484  ffff            f-line
00006486  ffff            f-line
00006488  0000 60f0       ori.b   #f0,d0
0000648c  0000 4704       ori.b   #4,d0
00006490  0000 0005       ori.b   #5,d0
00006494  aaaa            a-line
00006496  aaaa            a-line
00006498  aaaa            a-line
0000649a  aaaa            a-line
0000649c  aaaa            a-line
0000649e  aaaa            a-line
000064a0  aaaa            a-line
000064a2  aaaa            a-line
000064a4  aaaa            a-line
000064a6  aaaa            a-line
000064a8  aaaa            a-line
000064aa  aaaa            a-line
000064ac  aaaa            a-line
000064ae  aaaa            a-line
000064b0  aaaa            a-line
000064b2  aaaa            a-line
000064b4  aaaa            a-line
000064b6  aaaa            a-line
000064b8  aaaa            a-line
000064ba  aaaa            a-line
000064bc  aaaa            a-line
000064be  aaaa            a-line
000064c0  aaaa            a-line
000064c2  aaaa            a-line
000064c4  aaaa            a-line
000064c6  aaaa            a-line
000064c8  aaaa            a-line
000064ca  aaaa            a-line
000064cc  aaaa            a-line
000064ce  aaaa            a-line
000064d0  aaaa            a-line
000064d2  aaaa            a-line
000064d4  aaaa            a-line
000064d6  aaaa            a-line
000064d8  aaaa            a-line
000064da  aaaa            a-line
000064dc  aaaa            a-line
000064de  aaaa            a-line
000064e0  aaaa            a-line
000064e2  aaaa            a-line
000064e4  aaaa            a-line
000064e6  aaaa            a-line
000064e8  aaaa            a-line
000064ea  aaaa            a-line
000064ec  aaaa            a-line
000064ee  aaaa            a-line
000064f0  aaaa            a-line
000064f2  aaaa            a-line
000064f4  aaaa            a-line
000064f6  aaaa            a-line
000064f8  aaaa            a-line
000064fa  aaaa            a-line
000064fc  aaaa            a-line
000064fe  aaaa            a-line
00006500  aaaa            a-line
00006502  aaaa            a-line
00006504  aaaa            a-line
00006506  aaaa            a-line
00006508  aaaa            a-line
0000650a  aaaa            a-line
0000650c  aaaa            a-line
0000650e  aaaa            a-line
00006510  aaaa            a-line
00006512  aaaa            a-line
00006514  aaaa            a-line
00006516  aaaa            a-line
00006518  aaaa            a-line
0000651a  aaaa            a-line
0000651c  aaaa            a-line
0000651e  aaaa            a-line
00006520  aaaa            a-line
00006522  aaaa            a-line
00006524  aaaa            a-line
00006526  aaaa            a-line
00006528  aaaa            a-line
0000652a  aaaa            a-line
0000652c  aaaa            a-line
0000652e  aaaa            a-line
00006530  aaaa            a-line
00006532  aaaa            a-line
00006534  aaaa            a-line
00006536  aaaa            a-line
00006538  aaaa            a-line
0000653a  aaaa            a-line
0000653c  aaaa            a-line
0000653e  aaaa            a-line
00006540  aaaa            a-line
00006542  aaaa            a-line
00006544  aaaa            a-line
00006546  aaaa            a-line
00006548  aaaa            a-line
0000654a  aaaa            a-line
0000654c  aaaa            a-line
0000654e  aaaa            a-line
00006550  aaaa            a-line
00006552  aaaa            a-line
00006554  aaaa            a-line
00006556  aaaa            a-line
00006558  aaaa            a-line
0000655a  aaaa            a-line
0000655c  aaaa            a-line
0000655e  aaaa            a-line
00006560  aaaa            a-line
00006562  aaaa            a-line
00006564  aaaa            a-line
00006566  aaaa            a-line
00006568  aaaa            a-line
0000656a  aaaa            a-line
0000656c  aaaa            a-line
0000656e  aaaa            a-line
00006570  aaaa            a-line
00006572  aaaa            a-line
00006574  aaaa            a-line
00006576  aaaa            a-line
00006578  aaaa            a-line
0000657a  aaaa            a-line
0000657c  aaaa            a-line
0000657e  aaaa            a-line
00006580  aaaa            a-line
00006582  aaaa            a-line
00006584  aaaa            a-line
00006586  aaaa            a-line
00006588  aaaa            a-line
0000658a  aaaa            a-line
0000658c  aaaa            a-line
0000658e  aaaa            a-line
00006590  aaaa            a-line
00006592  aaaa            a-line
00006594  aaaa            a-line
00006596  aaaa            a-line
00006598  aaaa            a-line
0000659a  aaaa            a-line
0000659c  aaaa            a-line
0000659e  aaaa            a-line
000065a0  aaaa            a-line
000065a2  aaaa            a-line
000065a4  aaaa            a-line
000065a6  aaaa            a-line
000065a8  aaaa            a-line
000065aa  aaaa            a-line
000065ac  aaaa            a-line
000065ae  aaaa            a-line
000065b0  aaaa            a-line
000065b2  aaaa            a-line
000065b4  aaaa            a-line
000065b6  aaaa            a-line
000065b8  aaaa            a-line
000065ba  aaaa            a-line
000065bc  aaaa            a-line
000065be  aaaa            a-line
000065c0  aaaa            a-line
000065c2  aaaa            a-line
000065c4  aaaa            a-line
000065c6  aaaa            a-line
000065c8  aaaa            a-line
000065ca  aaaa            a-line
000065cc  aaaa            a-line
000065ce  aaaa            a-line
000065d0  aaaa            a-line
000065d2  aaaa            a-line
000065d4  aaaa            a-line
000065d6  aaaa            a-line
000065d8  aaaa            a-line
000065da  aaaa            a-line
000065dc  aaaa            a-line
000065de  aaaa            a-line
000065e0  aaaa            a-line
000065e2  aaaa            a-line
000065e4  aaaa            a-line
000065e6  aaaa            a-line
000065e8  aaaa            a-line
000065ea  aaaa            a-line
000065ec  aaaa            a-line
000065ee  aaaa            a-line
000065f0  aaaa            a-line
000065f2  aaaa            a-line
000065f4  aaaa            a-line
000065f6  aaaa            a-line
000065f8  aaaa            a-line
000065fa  aaaa            a-line
000065fc  aaaa            a-line
000065fe  aaaa            a-line
00006600  aaaa            a-line
00006602  aaaa            a-line
00006604  aaaa            a-line
00006606  aaaa            a-line
00006608  aaaa            a-line
0000660a  aaaa            a-line
0000660c  aaaa            a-line
0000660e  aaaa            a-line
00006610  aaaa            a-line
00006612  aaaa            a-line
00006614  aaaa            a-line
00006616  aaaa            a-line
00006618  aaaa            a-line
0000661a  aaaa            a-line
0000661c  aaaa            a-line
0000661e  aaaa            a-line
00006620  aaaa            a-line
00006622  aaaa            a-line
00006624  aaaa            a-line
00006626  aaaa            a-line
00006628  aaaa            a-line
0000662a  aaaa            a-line
0000662c  aaaa            a-line
0000662e  aaaa            a-line
00006630  aaaa            a-line
00006632  aaaa            a-line
00006634  aaaa            a-line
00006636  aaaa            a-line
00006638  aaaa            a-line
0000663a  aaaa            a-line
0000663c  aaaa            a-line
0000663e  aaaa            a-line
00006640  aaaa            a-line
00006642  aaaa            a-line
00006644  aaaa            a-line
00006646  aaaa            a-line
00006648  aaaa            a-line
0000664a  aaaa            a-line
0000664c  aaaa            a-line
0000664e  aaaa            a-line
00006650  aaaa            a-line
00006652  aaaa            a-line
00006654  aaaa            a-line
00006656  aaaa            a-line
00006658  aaaa            a-line
0000665a  aaaa            a-line
0000665c  aaaa            a-line
0000665e  aaaa            a-line
00006660  aaaa            a-line
00006662  aaaa            a-line
00006664  aaaa            a-line
00006666  aaaa            a-line
00006668  aaaa            a-line
0000666a  aaaa            a-line
0000666c  aaaa            a-line
0000666e  aaaa            a-line
00006670  aaaa            a-line
00006672  aaaa            a-line
00006674  aaaa            a-line
00006676  aaaa            a-line
00006678  aaaa            a-line
0000667a  aaaa            a-line
0000667c  aaaa            a-line
0000667e  aaaa            a-line
00006680  aaaa            a-line
00006682  aaaa            a-line
00006684  aaaa            a-line
00006686  aaaa            a-line
00006688  aaaa            a-line
0000668a  aaaa            a-line
0000668c  aaaa            a-line
0000668e  aaaa            a-line
00006690  aaaa            a-line
00006692  aaaa            a-line
00006694  aaaa            a-line
00006696  aaaa            a-line
00006698  aaaa            a-line
0000669a  aaaa            a-line
0000669c  aaaa            a-line
0000669e  aaaa            a-line
000066a0  aaaa            a-line
000066a2  aaaa            a-line
000066a4  aaaa            a-line
000066a6  aaaa            a-line
000066a8  aaaa            a-line
000066aa  aaaa            a-line
000066ac  aaaa            a-line
000066ae  aaaa            a-line
000066b0  aaaa            a-line
000066b2  aaaa            a-line
000066b4  aaaa            a-line
000066b6  aaaa            a-line
000066b8  aaaa            a-line
000066ba  aaaa            a-line
000066bc  aaaa            a-line
000066be  aaaa            a-line
000066c0  aaaa            a-line
000066c2  aaaa            a-line
000066c4  aaaa            a-line
000066c6  aaaa            a-line
000066c8  aaaa            a-line
000066ca  aaaa            a-line
000066cc  aaaa            a-line
000066ce  aaaa            a-line
000066d0  aaaa            a-line
000066d2  aaaa            a-line
000066d4  aaaa            a-line
000066d6  aaaa            a-line
000066d8  aaaa            a-line
000066da  aaaa            a-line
000066dc  aaaa            a-line
000066de  aaaa            a-line
000066e0  aaaa            a-line
000066e2  aaaa            a-line
000066e4  aaaa            a-line
000066e6  aaaa            a-line
000066e8  aaaa            a-line
000066ea  aaaa            a-line
000066ec  aaaa            a-line
000066ee  aaaa            a-line
000066f0  aaaa            a-line
000066f2  aaaa            a-line
000066f4  aaaa            a-line
000066f6  aaaa            a-line
000066f8  aaaa            a-line
000066fa  aaaa            a-line
000066fc  aaaa            a-line
000066fe  aaaa            a-line
00006700  aaaa            a-line
00006702  aaaa            a-line
00006704  aaaa            a-line
00006706  aaaa            a-line
00006708  aaaa            a-line
0000670a  aaaa            a-line
0000670c  aaaa            a-line
0000670e  aaaa            a-line
00006710  aaaa            a-line
00006712  aaaa            a-line
00006714  aaaa            a-line
00006716  aaaa            a-line
00006718  aaaa            a-line
0000671a  aaaa            a-line
0000671c  aaaa            a-line
0000671e  aaaa            a-line
00006720  aaaa            a-line
00006722  aaaa            a-line
00006724  aaaa            a-line
00006726  aaaa            a-line
00006728  aaaa            a-line
0000672a  aaaa            a-line
0000672c  aaaa            a-line
0000672e  aaaa            a-line
00006730  aaaa            a-line
00006732  aaaa            a-line
00006734  aaaa            a-line
00006736  aaaa            a-line
00006738  aaaa            a-line
0000673a  aaaa            a-line
0000673c  aaaa            a-line
0000673e  aaaa            a-line
00006740  aaaa            a-line
00006742  aaaa            a-line
00006744  aaaa            a-line
00006746  aaaa            a-line
00006748  aaaa            a-line
0000674a  aaaa            a-line
0000674c  aaaa            a-line
0000674e  aaaa            a-line
00006750  aaaa            a-line
00006752  aaaa            a-line
00006754  aaaa            a-line
00006756  aaaa            a-line
00006758  aaaa            a-line
0000675a  aaaa            a-line
0000675c  aaaa            a-line
0000675e  aaaa            a-line
00006760  aaaa            a-line
00006762  aaaa            a-line
00006764  aaaa            a-line
00006766  aaaa            a-line
00006768  aaaa            a-line
0000676a  aaaa            a-line
0000676c  aaaa            a-line
0000676e  aaaa            a-line
00006770  aaaa            a-line
00006772  aaaa            a-line
00006774  aaaa            a-line
00006776  aaaa            a-line
00006778  aaaa            a-line
0000677a  aaaa            a-line
0000677c  aaaa            a-line
0000677e  aaaa            a-line
00006780  aaaa            a-line
00006782  aaaa            a-line
00006784  aaaa            a-line
00006786  aaaa            a-line
00006788  aaaa            a-line
0000678a  aaaa            a-line
0000678c  aaaa            a-line
0000678e  aaaa            a-line
00006790  aaaa            a-line
00006792  aaaa            a-line
00006794  aaaa            a-line
00006796  aaaa            a-line
00006798  aaaa            a-line
0000679a  aaaa            a-line
0000679c  aaaa            a-line
0000679e  aaaa            a-line
000067a0  aaaa            a-line
000067a2  aaaa            a-line
000067a4  aaaa            a-line
000067a6  aaaa            a-line
000067a8  aaaa            a-line
000067aa  aaaa            a-line
000067ac  aaaa            a-line
000067ae  aaaa            a-line
000067b0  aaaa            a-line
000067b2  aaaa            a-line
000067b4  aaaa            a-line
000067b6  aaaa            a-line
000067b8  aaaa            a-line
000067ba  aaaa            a-line
000067bc  aaaa            a-line
000067be  aaaa            a-line
000067c0  aaaa            a-line
000067c2  aaaa            a-line
000067c4  aaaa            a-line
000067c6  aaaa            a-line
000067c8  aaaa            a-line
000067ca  aaaa            a-line
000067cc  aaaa            a-line
000067ce  aaaa            a-line
000067d0  aaaa            a-line
000067d2  aaaa            a-line
000067d4  aaaa            a-line
000067d6  aaaa            a-line
000067d8  aaaa            a-line
000067da  aaaa            a-line
000067dc  aaaa            a-line
000067de  aaaa            a-line
000067e0  aaaa            a-line
000067e2  aaaa            a-line
000067e4  aaaa            a-line
000067e6  aaaa            a-line
000067e8  aaaa            a-line
000067ea  aaaa            a-line
000067ec  aaaa            a-line
000067ee  aaaa            a-line
000067f0  aaaa            a-line
000067f2  aaaa            a-line
000067f4  aaaa            a-line
000067f6  aaaa            a-line
000067f8  aaaa            a-line
000067fa  aaaa            a-line
000067fc  aaaa            a-line
000067fe  aaaa            a-line
00006800  aaaa            a-line
00006802  aaaa            a-line
00006804  aaaa            a-line
00006806  aaaa            a-line
00006808  aaaa            a-line
0000680a  aaaa            a-line
0000680c  aaaa            a-line
0000680e  aaaa            a-line
00006810  aaaa            a-line
00006812  aaaa            a-line
00006814  aaaa            a-line
00006816  aaaa            a-line
00006818  aaaa            a-line
0000681a  aaaa            a-line
0000681c  aaaa            a-line
0000681e  aaaa            a-line
00006820  aaaa            a-line
00006822  aaaa            a-line
00006824  aaaa            a-line
00006826  aaaa            a-line
00006828  aaaa            a-line
0000682a  aaaa            a-line
0000682c  aaaa            a-line
0000682e  aaaa            a-line
00006830  aaaa            a-line
00006832  aaaa            a-line
00006834  aaaa            a-line
00006836  aaaa            a-line
00006838  aaaa            a-line
0000683a  aaaa            a-line
0000683c  aaaa            a-line
0000683e  aaaa            a-line
00006840  aaaa            a-line
00006842  aaaa            a-line
00006844  aaaa            a-line
00006846  aaaa            a-line
00006848  aaaa            a-line
0000684a  aaaa            a-line
0000684c  aaaa            a-line
0000684e  aaaa            a-line
00006850  aaaa            a-line
00006852  aaaa            a-line
00006854  aaaa            a-line
00006856  aaaa            a-line
00006858  aaaa            a-line
0000685a  aaaa            a-line
0000685c  aaaa            a-line
0000685e  aaaa            a-line
00006860  aaaa            a-line
00006862  aaaa            a-line
00006864  aaaa            a-line
00006866  aaaa            a-line
00006868  aaaa            a-line
0000686a  aaaa            a-line
0000686c  aaaa            a-line
0000686e  aaaa            a-line
00006870  aaaa            a-line
00006872  aaaa            a-line
00006874  aaaa            a-line
00006876  aaaa            a-line
00006878  aaaa            a-line
0000687a  aaaa            a-line
0000687c  aaaa            a-line
0000687e  aaaa            a-line
00006880  aaaa            a-line
00006882  aaaa            a-line
00006884  aaaa            a-line
00006886  aaaa            a-line
00006888  aaaa            a-line
0000688a  aaaa            a-line
0000688c  aaaa            a-line
0000688e  aaaa            a-line
00006890  aaaa            a-line
00006892  aaaa            a-line
00006894  aaaa            a-line
00006896  aaaa            a-line
00006898  aaaa            a-line
0000689a  aaaa            a-line
0000689c  aaaa            a-line
0000689e  aaaa            a-line
000068a0  aaaa            a-line
000068a2  aaaa            a-line
000068a4  aaaa            a-line
000068a6  aaaa            a-line
000068a8  aaaa            a-line
000068aa  aaaa            a-line
000068ac  aaaa            a-line
000068ae  aaaa            a-line
000068b0  aaaa            a-line
000068b2  aaaa            a-line
000068b4  aaaa            a-line
000068b6  aaaa            a-line
000068b8  aaaa            a-line
000068ba  aaaa            a-line
000068bc  aaaa            a-line
000068be  aaaa            a-line
000068c0  aaaa            a-line
000068c2  aaaa            a-line
000068c4  aaaa            a-line
000068c6  aaaa            a-line
000068c8  aaaa            a-line
000068ca  aaaa            a-line
000068cc  aaaa            a-line
000068ce  aaaa            a-line
000068d0  aaaa            a-line
000068d2  aaaa            a-line
000068d4  aaaa            a-line
000068d6  aaaa            a-line
000068d8  aaaa            a-line
000068da  aaaa            a-line
000068dc  aaaa            a-line
000068de  aaaa            a-line
000068e0  aaaa            a-line
000068e2  aaaa            a-line
000068e4  aaaa            a-line
000068e6  aaaa            a-line
000068e8  aaaa            a-line
000068ea  aaaa            a-line
000068ec  aaaa            a-line
000068ee  aaaa            a-line
000068f0  aaaa            a-line
000068f2  aaaa            a-line
000068f4  aaaa            a-line
000068f6  aaaa            a-line
000068f8  aaaa            a-line
000068fa  aaaa            a-line
000068fc  aaaa            a-line
000068fe  aaaa            a-line
00006900  aaaa            a-line
00006902  aaaa            a-line
00006904  aaaa            a-line
00006906  aaaa            a-line
00006908  aaaa            a-line
0000690a  aaaa            a-line
0000690c  aaaa            a-line
0000690e  aaaa            a-line
00006910  aaaa            a-line
00006912  aaaa            a-line
00006914  aaaa            a-line
00006916  aaaa            a-line
00006918  aaaa            a-line
0000691a  aaaa            a-line
0000691c  aaaa            a-line
0000691e  aaaa            a-line
00006920  aaaa            a-line
00006922  aaaa            a-line
00006924  aaaa            a-line
00006926  aaaa            a-line
00006928  aaaa            a-line
0000692a  aaaa            a-line
0000692c  aaaa            a-line
0000692e  aaaa            a-line
00006930  aaaa            a-line
00006932  aaaa            a-line
00006934  aaaa            a-line
00006936  aaaa            a-line
00006938  aaaa            a-line
0000693a  aaaa            a-line
0000693c  aaaa            a-line
0000693e  aaaa            a-line
00006940  aaaa            a-line
00006942  aaaa            a-line
00006944  aaaa            a-line
00006946  aaaa            a-line
00006948  aaaa            a-line
0000694a  aaaa            a-line
0000694c  aaaa            a-line
0000694e  aaaa            a-line
00006950  aaaa            a-line
00006952  aaaa            a-line
00006954  aaaa            a-line
00006956  aaaa            a-line
00006958  aaaa            a-line
0000695a  aaaa            a-line
0000695c  aaaa            a-line
0000695e  aaaa            a-line
00006960  aaaa            a-line
00006962  aaaa            a-line
00006964  aaaa            a-line
00006966  aaaa            a-line
00006968  aaaa            a-line
0000696a  aaaa            a-line
0000696c  aaaa            a-line
0000696e  aaaa            a-line
00006970  aaaa            a-line
00006972  aaaa            a-line
00006974  aaaa            a-line
00006976  aaaa            a-line
00006978  aaaa            a-line
0000697a  aaaa            a-line
0000697c  aaaa            a-line
0000697e  aaaa            a-line
00006980  aaaa            a-line
00006982  aaaa            a-line
00006984  aaaa            a-line
00006986  aaaa            a-line
00006988  aaaa            a-line
0000698a  aaaa            a-line
0000698c  aaaa            a-line
0000698e  aaaa            a-line
00006990  aaaa            a-line
00006992  aaaa            a-line
00006994  aaaa            a-line
00006996  aaaa            a-line
00006998  aaaa            a-line
0000699a  aaaa            a-line
0000699c  aaaa            a-line
0000699e  aaaa            a-line
000069a0  aaaa            a-line
000069a2  aaaa            a-line
000069a4  aaaa            a-line
000069a6  aaaa            a-line
000069a8  aaaa            a-line
000069aa  aaaa            a-line
000069ac  aaaa            a-line
000069ae  aaaa            a-line
000069b0  aaaa            a-line
000069b2  aaaa            a-line
000069b4  aaaa            a-line
000069b6  aaaa            a-line
000069b8  aaaa            a-line
000069ba  aaaa            a-line
000069bc  aaaa            a-line
000069be  aaaa            a-line
000069c0  aaaa            a-line
000069c2  aaaa            a-line
000069c4  aaaa            a-line
000069c6  aaaa            a-line
000069c8  aaaa            a-line
000069ca  aaaa            a-line
000069cc  aaaa            a-line
000069ce  aaaa            a-line
000069d0  aaaa            a-line
000069d2  aaaa            a-line
000069d4  aaaa            a-line
000069d6  aaaa            a-line
000069d8  aaaa            a-line
000069da  aaaa            a-line
000069dc  aaaa            a-line
000069de  aaaa            a-line
000069e0  aaaa            a-line
000069e2  aaaa            a-line
000069e4  aaaa            a-line
000069e6  aaaa            a-line
000069e8  aaaa            a-line
000069ea  aaaa            a-line
000069ec  aaaa            a-line
000069ee  aaaa            a-line
000069f0  aaaa            a-line
000069f2  aaaa            a-line
000069f4  aaaa            a-line
000069f6  aaaa            a-line
000069f8  aaaa            a-line
000069fa  aaaa            a-line
000069fc  aaaa            a-line
000069fe  aaaa            a-line
00006a00  aaaa            a-line
00006a02  aaaa            a-line
00006a04  aaaa            a-line
00006a06  aaaa            a-line
00006a08  aaaa            a-line
00006a0a  aaaa            a-line
00006a0c  aaaa            a-line
00006a0e  aaaa            a-line
00006a10  aaaa            a-line
00006a12  aaaa            a-line
00006a14  aaaa            a-line
00006a16  aaaa            a-line
00006a18  aaaa            a-line
00006a1a  aaaa            a-line
00006a1c  aaaa            a-line
00006a1e  aaaa            a-line
00006a20  aaaa            a-line
00006a22  aaaa            a-line
00006a24  aaaa            a-line
00006a26  aaaa            a-line
00006a28  aaaa            a-line
00006a2a  aaaa            a-line
00006a2c  aaaa            a-line
00006a2e  aaaa            a-line
00006a30  aaaa            a-line
00006a32  aaaa            a-line
00006a34  aaaa            a-line
00006a36  aaaa            a-line
00006a38  aaaa            a-line
00006a3a  aaaa            a-line
00006a3c  aaaa            a-line
00006a3e  aaaa            a-line
00006a40  aaaa            a-line
00006a42  aaaa            a-line
00006a44  aaaa            a-line
00006a46  aaaa            a-line
00006a48  aaaa            a-line
00006a4a  aaaa            a-line
00006a4c  aaaa            a-line
00006a4e  aaaa            a-line
00006a50  aaaa            a-line
00006a52  aaaa            a-line
00006a54  aaaa            a-line
00006a56  aaaa            a-line
00006a58  aaaa            a-line
00006a5a  aaaa            a-line
00006a5c  aaaa            a-line
00006a5e  aaaa            a-line
00006a60  aaaa            a-line
00006a62  aaaa            a-line
00006a64  aaaa            a-line
00006a66  aaaa            a-line
00006a68  aaaa            a-line
00006a6a  aaaa            a-line
00006a6c  aaaa            a-line
00006a6e  aaaa            a-line
00006a70  aaaa            a-line
00006a72  aaaa            a-line
00006a74  aaaa            a-line
00006a76  aaaa            a-line
00006a78  aaaa            a-line
00006a7a  aaaa            a-line
00006a7c  aaaa            a-line
00006a7e  aaaa            a-line
00006a80  aaaa            a-line
00006a82  aaaa            a-line
00006a84  aaaa            a-line
00006a86  aaaa            a-line
00006a88  aaaa            a-line
00006a8a  aaaa            a-line
00006a8c  aaaa            a-line
00006a8e  aaaa            a-line
00006a90  aaaa            a-line
00006a92  aaaa            a-line
00006a94  aaaa            a-line
00006a96  aaaa            a-line
00006a98  aaaa            a-line
00006a9a  aaaa            a-line
00006a9c  aaaa            a-line
00006a9e  aaaa            a-line
00006aa0  aaaa            a-line
00006aa2  aaaa            a-line
00006aa4  aaaa            a-line
00006aa6  aaaa            a-line
00006aa8  aaaa            a-line
00006aaa  aaaa            a-line
00006aac  aaaa            a-line
00006aae  aaaa            a-line
00006ab0  aaaa            a-line
00006ab2  aaaa            a-line
00006ab4  aaaa            a-line
00006ab6  aaaa            a-line
00006ab8  aaaa            a-line
00006aba  aaaa            a-line
00006abc  aaaa            a-line
00006abe  aaaa            a-line
00006ac0  aaaa            a-line
00006ac2  aaaa            a-line
00006ac4  aaaa            a-line
00006ac6  aaaa            a-line
00006ac8  aaaa            a-line
00006aca  aaaa            a-line
00006acc  aaaa            a-line
00006ace  aaaa            a-line
00006ad0  aaaa            a-line
00006ad2  aaaa            a-line
00006ad4  aaaa            a-line
00006ad6  aaaa            a-line
00006ad8  aaaa            a-line
00006ada  aaaa            a-line
00006adc  aaaa            a-line
00006ade  aaaa            a-line
00006ae0  aaaa            a-line
00006ae2  aaaa            a-line
00006ae4  aaaa            a-line
00006ae6  aaaa            a-line
00006ae8  aaaa            a-line
00006aea  aaaa            a-line
00006aec  aaaa            a-line
00006aee  aaaa            a-line
00006af0  aaaa            a-line
00006af2  aaaa            a-line
00006af4  aaaa            a-line
00006af6  aaaa            a-line
00006af8  aaaa            a-line
00006afa  aaaa            a-line
00006afc  aaaa            a-line
00006afe  aaaa            a-line
00006b00  aaaa            a-line
00006b02  aaaa            a-line
00006b04  aaaa            a-line
00006b06  aaaa            a-line
00006b08  aaaa            a-line
00006b0a  aaaa            a-line
00006b0c  aaaa            a-line
00006b0e  aaaa            a-line
00006b10  aaaa            a-line
00006b12  aaaa            a-line
00006b14  4489            neg.l   a1
00006b16  4489            neg.l   a1
00006b18  552a aaa5       subq.b  #2,-555b(a2)
00006b1c  552a a529       subq.b  #2,-5ad7(a2)
00006b20  2aaa aaaa       move.l  -5556(a2),(a5)
00006b24  aaaa            a-line
00006b26  aaaa            a-line
00006b28  aaaa            a-line
00006b2a  aaaa            a-line
00006b2c  aaaa            a-line
00006b2e  aaaa            a-line
00006b30  aaaa            a-line
00006b32  aaaa            a-line
00006b34  aaaa            a-line
00006b36  aaaa            a-line
00006b38  aaaa            a-line
00006b3a  aaaa            a-line
00006b3c  aaaa            a-line
00006b3e  aaaa            a-line
00006b40  aaaa            a-line
00006b42  aaaa            a-line
00006b44  aaaa            a-line
00006b46  a524            a-line
00006b48  aaaa            a-line
00006b4a  aaaa            a-line
00006b4c  aaaa            a-line
00006b4e  aaaa            a-line
00006b50  aaa5            a-line
00006b52  294a aaa5       move.l  a2,-555b(a4)
00006b56  294a aaa5       move.l  a2,-555b(a4)
00006b5a  2949 2aa5       move.l  a1,2aa5(a4)
00006b5e  2949 2aa5       move.l  a1,2aa5(a4)
00006b62  294a aaa5       move.l  a2,-555b(a4)
00006b66  294a aaa5       move.l  a2,-555b(a4)
00006b6a  2949 2aa5       move.l  a1,2aa5(a4)
00006b6e  2949 2aa5       move.l  a1,2aa5(a4)
00006b72  2944 aaa5       move.l  d4,-555b(a4)
00006b76  2944 aaa5       move.l  d4,-555b(a4)
00006b7a  2945 2aa5       move.l  d5,2aa5(a4)
00006b7e  2945 2aa5       move.l  d5,2aa5(a4)
00006b82  2944 aaa5       move.l  d4,-555b(a4)
00006b86  2944 aaa5       move.l  d4,-555b(a4)
00006b8a  2945 2aa5       move.l  d5,2aa5(a4)
00006b8e  2945 2aa5       move.l  d5,2aa5(a4)
00006b92  294a aaa5       move.l  a2,-555b(a4)
00006b96  294a aaa5       move.l  a2,-555b(a4)
00006b9a  2949 2aa5       move.l  a1,2aa5(a4)
00006b9e  2949 2aa5       move.l  a1,2aa5(a4)
00006ba2  294a aaa5       move.l  a2,-555b(a4)
00006ba6  294a aaa5       move.l  a2,-555b(a4)
00006baa  2949 2aa5       move.l  a1,2aa5(a4)
00006bae  2949 2aa5       move.l  a1,2aa5(a4)
00006bb2  2944 aaa5       move.l  d4,-555b(a4)
00006bb6  2944 aaa5       move.l  d4,-555b(a4)
00006bba  2945 2aa5       move.l  d5,2aa5(a4)
00006bbe  2945 2aa5       move.l  d5,2aa5(a4)
00006bc2  2944 aaa5       move.l  d4,-555b(a4)
00006bc6  2944 aaa5       move.l  d4,-555b(a4)
00006bca  2945 2aa5       move.l  d5,2aa5(a4)
00006bce  2945 2aa5       move.l  d5,2aa5(a4)
00006bd2  2952 aaa5       move.l  (a2),-555b(a4)
00006bd6  2952 aaa5       move.l  (a2),-555b(a4)
00006bda  2951 2aa5       move.l  (a1),2aa5(a4)
00006bde  2951 2aa5       move.l  (a1),2aa5(a4)
00006be2  2952 aaa5       move.l  (a2),-555b(a4)
00006be6  2952 aaa5       move.l  (a2),-555b(a4)
00006bea  2951 2aa5       move.l  (a1),2aa5(a4)
00006bee  2951 2aa5       move.l  (a1),2aa5(a4)
00006bf2  2954 aaa5       move.l  (a4),-555b(a4)
00006bf6  2954 aaa5       move.l  (a4),-555b(a4)
00006bfa  2955 2aa5       move.l  (a5),2aa5(a4)
00006bfe  2955 2aa5       move.l  (a5),2aa5(a4)
00006c02  2954 aaa5       move.l  (a4),-555b(a4)
00006c06  2954 aaa5       move.l  (a4),-555b(a4)
00006c0a  2955 2aa5       move.l  (a5),2aa5(a4)
00006c0e  2955 2aa5       move.l  (a5),2aa5(a4)
00006c12  2952 aaa5       move.l  (a2),-555b(a4)
00006c16  2952 aaa5       move.l  (a2),-555b(a4)
00006c1a  2951 2aa5       move.l  (a1),2aa5(a4)
00006c1e  2951 2aa5       move.l  (a1),2aa5(a4)
00006c22  2952 aaa5       move.l  (a2),-555b(a4)
00006c26  2952 aaa5       move.l  (a2),-555b(a4)
00006c2a  2951 2aa5       move.l  (a1),2aa5(a4)
00006c2e  2951 2aa5       move.l  (a1),2aa5(a4)
00006c32  2954 aaa5       move.l  (a4),-555b(a4)
00006c36  2954 aaa5       move.l  (a4),-555b(a4)
00006c3a  2955 2aa5       move.l  (a5),2aa5(a4)
00006c3e  2955 2aa5       move.l  (a5),2aa5(a4)
00006c42  2954 aaa5       move.l  (a4),-555b(a4)
00006c46  2954 aaa5       move.l  (a4),-555b(a4)
00006c4a  2955 2aa5       move.l  (a5),2aa5(a4)
00006c4e  2955 2aa5       move.l  (a5),2aa5(a4)
00006c52  294a aaa5       move.l  a2,-555b(a4)
00006c56  294a aaa5       move.l  a2,-555b(a4)
00006c5a  2949 2aa5       move.l  a1,2aa5(a4)
00006c5e  2949 2aa5       move.l  a1,2aa5(a4)
00006c62  294a aaa5       move.l  a2,-555b(a4)
00006c66  294a aaa5       move.l  a2,-555b(a4)
00006c6a  2949 2aa5       move.l  a1,2aa5(a4)
00006c6e  2949 2aa5       move.l  a1,2aa5(a4)
00006c72  2944 aaa5       move.l  d4,-555b(a4)
00006c76  2944 aaa5       move.l  d4,-555b(a4)
00006c7a  2945 2aa5       move.l  d5,2aa5(a4)
00006c7e  2945 2aa5       move.l  d5,2aa5(a4)
00006c82  2944 aaa5       move.l  d4,-555b(a4)
00006c86  2944 aaa5       move.l  d4,-555b(a4)
00006c8a  2945 2aa5       move.l  d5,2aa5(a4)
00006c8e  2945 2aa5       move.l  d5,2aa5(a4)
00006c92  294a aaa5       move.l  a2,-555b(a4)
00006c96  294a aaa5       move.l  a2,-555b(a4)
00006c9a  2949 2aa5       move.l  a1,2aa5(a4)
00006c9e  2949 2aa5       move.l  a1,2aa5(a4)
00006ca2  294a aaa5       move.l  a2,-555b(a4)
00006ca6  294a aaa5       move.l  a2,-555b(a4)
00006caa  2949 2aa5       move.l  a1,2aa5(a4)
00006cae  2949 2aa5       move.l  a1,2aa5(a4)
00006cb2  2944 aaa5       move.l  d4,-555b(a4)
00006cb6  2944 aaa5       move.l  d4,-555b(a4)
00006cba  2945 2aa5       move.l  d5,2aa5(a4)
00006cbe  2945 2aa5       move.l  d5,2aa5(a4)
00006cc2  2944 aaa5       move.l  d4,-555b(a4)
00006cc6  2944 aaa5       move.l  d4,-555b(a4)
00006cca  2945 2aa5       move.l  d5,2aa5(a4)
00006cce  2945 2aa5       move.l  d5,2aa5(a4)
00006cd2  2952 aaa5       move.l  (a2),-555b(a4)
00006cd6  2952 aaa5       move.l  (a2),-555b(a4)
00006cda  2951 2aa5       move.l  (a1),2aa5(a4)
00006cde  2951 2aa5       move.l  (a1),2aa5(a4)
00006ce2  2952 aaa5       move.l  (a2),-555b(a4)
00006ce6  2952 aaa5       move.l  (a2),-555b(a4)
00006cea  2951 2aa5       move.l  (a1),2aa5(a4)
00006cee  2951 2aa5       move.l  (a1),2aa5(a4)
00006cf2  2954 aaa5       move.l  (a4),-555b(a4)
00006cf6  2954 aaa5       move.l  (a4),-555b(a4)
00006cfa  2955 2aa5       move.l  (a5),2aa5(a4)
00006cfe  2955 2aa5       move.l  (a5),2aa5(a4)
00006d02  2954 aaa5       move.l  (a4),-555b(a4)
00006d06  2954 aaa5       move.l  (a4),-555b(a4)
00006d0a  2955 2aa5       move.l  (a5),2aa5(a4)
00006d0e  2955 2aa5       move.l  (a5),2aa5(a4)
00006d12  2952 aaa5       move.l  (a2),-555b(a4)
00006d16  2952 aaa5       move.l  (a2),-555b(a4)
00006d1a  2951 2aa5       move.l  (a1),2aa5(a4)
00006d1e  2951 2aa5       move.l  (a1),2aa5(a4)
00006d22  2952 aaa5       move.l  (a2),-555b(a4)
00006d26  2952 aaa5       move.l  (a2),-555b(a4)
00006d2a  2951 2aa5       move.l  (a1),2aa5(a4)
00006d2e  2951 2aa5       move.l  (a1),2aa5(a4)
00006d32  2954 aaa5       move.l  (a4),-555b(a4)
00006d36  2954 aaa5       move.l  (a4),-555b(a4)
00006d3a  2955 2aa5       move.l  (a5),2aa5(a4)
00006d3e  2955 2aa5       move.l  (a5),2aa5(a4)
00006d42  2954 aaa5       move.l  (a4),-555b(a4)
00006d46  2954 aaa5       move.l  (a4),-555b(a4)
00006d4a  2955 2aa5       move.l  (a5),2aa5(a4)
00006d4e  2955 4445       move.l  (a5),4445(a4)
00006d52  512a 4445       subq.b  #8,4445(a2)
00006d56  5129 4445       subq.b  #8,4445(a1)
00006d5a  512a 4445       subq.b  #8,4445(a2)
00006d5e  5129 4445       subq.b  #8,4445(a1)
00006d62  5124            subq.b  #8,-(a4)
00006d64  4445            neg.w   d5
00006d66  5125            subq.b  #8,-(a5)
00006d68  4445            neg.w   d5
00006d6a  5124            subq.b  #8,-(a4)
00006d6c  4445            neg.w   d5
00006d6e  5125            subq.b  #8,-(a5)
00006d70  4445            neg.w   d5
00006d72  512a 4445       subq.b  #8,4445(a2)
00006d76  5129 4445       subq.b  #8,4445(a1)
00006d7a  512a 4445       subq.b  #8,4445(a2)
00006d7e  5129 4445       subq.b  #8,4445(a1)
00006d82  5124            subq.b  #8,-(a4)
00006d84  4445            neg.w   d5
00006d86  5125            subq.b  #8,-(a5)
00006d88  4445            neg.w   d5
00006d8a  5124            subq.b  #8,-(a4)
00006d8c  4445            neg.w   d5
00006d8e  5125            subq.b  #8,-(a5)
00006d90  4445            neg.w   d5
00006d92  5112            subq.b  #8,(a2)
00006d94  4445            neg.w   d5
00006d96  5111            subq.b  #8,(a1)
00006d98  4445            neg.w   d5
00006d9a  5112            subq.b  #8,(a2)
00006d9c  4445            neg.w   d5
00006d9e  5111            subq.b  #8,(a1)
00006da0  4445            neg.w   d5
00006da2  5114            subq.b  #8,ciabpra(a4)
00006da4  4445            neg.w   d5
00006da6  5115            subq.b  #8,(a5)
00006da8  4445            neg.w   d5
00006daa  5114            subq.b  #8,ciabpra(a4)
00006dac  4445            neg.w   d5
00006dae  5115            subq.b  #8,(a5)
00006db0  4445            neg.w   d5
00006db2  5112            subq.b  #8,(a2)
00006db4  4445            neg.w   d5
00006db6  5111            subq.b  #8,(a1)
00006db8  4445            neg.w   d5
00006dba  5112            subq.b  #8,(a2)
00006dbc  4445            neg.w   d5
00006dbe  5111            subq.b  #8,(a1)
00006dc0  4445            neg.w   d5
00006dc2  5114            subq.b  #8,ciabpra(a4)
00006dc4  4445            neg.w   d5
00006dc6  5115            subq.b  #8,(a5)
00006dc8  4445            neg.w   d5
00006dca  5114            subq.b  #8,ciabpra(a4)
00006dcc  4445            neg.w   d5
00006dce  5115            subq.b  #8,(a5)
00006dd0  4445            neg.w   d5
00006dd2  512a 4445       subq.b  #8,4445(a2)
00006dd6  5129 4445       subq.b  #8,4445(a1)
00006dda  512a 4445       subq.b  #8,4445(a2)
00006dde  5129 4445       subq.b  #8,4445(a1)
00006de2  5124            subq.b  #8,-(a4)
00006de4  4445            neg.w   d5
00006de6  5125            subq.b  #8,-(a5)
00006de8  4445            neg.w   d5
00006dea  5124            subq.b  #8,-(a4)
00006dec  4445            neg.w   d5
00006dee  5125            subq.b  #8,-(a5)
00006df0  4445            neg.w   d5
00006df2  512a 4445       subq.b  #8,4445(a2)
00006df6  5129 4445       subq.b  #8,4445(a1)
00006dfa  512a 4445       subq.b  #8,4445(a2)
00006dfe  5129 4445       subq.b  #8,4445(a1)
00006e02  5124            subq.b  #8,-(a4)
00006e04  4445            neg.w   d5
00006e06  5125            subq.b  #8,-(a5)
00006e08  4445            neg.w   d5
00006e0a  5124            subq.b  #8,-(a4)
00006e0c  4445            neg.w   d5
00006e0e  5125            subq.b  #8,-(a5)
00006e10  4445            neg.w   d5
00006e12  5112            subq.b  #8,(a2)
00006e14  4445            neg.w   d5
00006e16  5111            subq.b  #8,(a1)
00006e18  4445            neg.w   d5
00006e1a  5112            subq.b  #8,(a2)
00006e1c  4445            neg.w   d5
00006e1e  5111            subq.b  #8,(a1)
00006e20  4445            neg.w   d5
00006e22  5114            subq.b  #8,ciabpra(a4)
00006e24  4445            neg.w   d5
00006e26  5115            subq.b  #8,(a5)
00006e28  4445            neg.w   d5
00006e2a  5114            subq.b  #8,ciabpra(a4)
00006e2c  4445            neg.w   d5
00006e2e  5115            subq.b  #8,(a5)
00006e30  4445            neg.w   d5
00006e32  5112            subq.b  #8,(a2)
00006e34  4445            neg.w   d5
00006e36  5111            subq.b  #8,(a1)
00006e38  4445            neg.w   d5
00006e3a  5112            subq.b  #8,(a2)
00006e3c  4445            neg.w   d5
00006e3e  5111            subq.b  #8,(a1)
00006e40  4445            neg.w   d5
00006e42  5114            subq.b  #8,ciabpra(a4)
00006e44  4445            neg.w   d5
00006e46  5115            subq.b  #8,(a5)
00006e48  4445            neg.w   d5
00006e4a  5114            subq.b  #8,ciabpra(a4)
00006e4c  4445            neg.w   d5
00006e4e  5115            subq.b  #8,(a5)
00006e50  4445            neg.w   d5
00006e52  514a            subq.w  #8,a2
00006e54  4445            neg.w   d5
00006e56  5149            subq.w  #8,a1
00006e58  4445            neg.w   d5
00006e5a  514a            subq.w  #8,a2
00006e5c  4445            neg.w   d5
00006e5e  5149            subq.w  #8,a1
00006e60  4445            neg.w   d5
00006e62  5144            subq.w  #8,d4
00006e64  4445            neg.w   d5
00006e66  5145            subq.w  #8,d5
00006e68  4445            neg.w   d5
00006e6a  5144            subq.w  #8,d4
00006e6c  4445            neg.w   d5
00006e6e  5145            subq.w  #8,d5
00006e70  4445            neg.w   d5
00006e72  514a            subq.w  #8,a2
00006e74  4445            neg.w   d5
00006e76  5149            subq.w  #8,a1
00006e78  4445            neg.w   d5
00006e7a  514a            subq.w  #8,a2
00006e7c  4445            neg.w   d5
00006e7e  5149            subq.w  #8,a1
00006e80  4445            neg.w   d5
00006e82  5144            subq.w  #8,d4
00006e84  4445            neg.w   d5
00006e86  5145            subq.w  #8,d5
00006e88  4445            neg.w   d5
00006e8a  5144            subq.w  #8,d4
00006e8c  4445            neg.w   d5
00006e8e  5145            subq.w  #8,d5
00006e90  4445            neg.w   d5
00006e92  5152            subq.w  #8,(a2)
00006e94  4445            neg.w   d5
00006e96  5151            subq.w  #8,(a1)
00006e98  4445            neg.w   d5
00006e9a  5152            subq.w  #8,(a2)
00006e9c  4445            neg.w   d5
00006e9e  5151            subq.w  #8,(a1)
00006ea0  4445            neg.w   d5
00006ea2  5154            subq.w  #8,ciabpra(a4)
00006ea4  4445            neg.w   d5
00006ea6  5155            subq.w  #8,(a5)
00006ea8  4445            neg.w   d5
00006eaa  5154            subq.w  #8,ciabpra(a4)
00006eac  4445            neg.w   d5
00006eae  5155            subq.w  #8,(a5)
00006eb0  4445            neg.w   d5
00006eb2  5152            subq.w  #8,(a2)
00006eb4  4445            neg.w   d5
00006eb6  5151            subq.w  #8,(a1)
00006eb8  4445            neg.w   d5
00006eba  5152            subq.w  #8,(a2)
00006ebc  4445            neg.w   d5
00006ebe  5151            subq.w  #8,(a1)
00006ec0  4445            neg.w   d5
00006ec2  5154            subq.w  #8,ciabpra(a4)
00006ec4  4445            neg.w   d5
00006ec6  5155            subq.w  #8,(a5)
00006ec8  4445            neg.w   d5
00006eca  5154            subq.w  #8,ciabpra(a4)
00006ecc  4445            neg.w   d5
00006ece  5155            subq.w  #8,(a5)
00006ed0  4445            neg.w   d5
00006ed2  514a            subq.w  #8,a2
00006ed4  4445            neg.w   d5
00006ed6  5149            subq.w  #8,a1
00006ed8  4445            neg.w   d5
00006eda  514a            subq.w  #8,a2
00006edc  4445            neg.w   d5
00006ede  5149            subq.w  #8,a1
00006ee0  4445            neg.w   d5
00006ee2  5144            subq.w  #8,d4
00006ee4  4445            neg.w   d5
00006ee6  5145            subq.w  #8,d5
00006ee8  4445            neg.w   d5
00006eea  5144            subq.w  #8,d4
00006eec  4445            neg.w   d5
00006eee  5145            subq.w  #8,d5
00006ef0  4445            neg.w   d5
00006ef2  514a            subq.w  #8,a2
00006ef4  4445            neg.w   d5
00006ef6  5149            subq.w  #8,a1
00006ef8  4445            neg.w   d5
00006efa  514a            subq.w  #8,a2
00006efc  4445            neg.w   d5
00006efe  5149            subq.w  #8,a1
00006f00  4445            neg.w   d5
00006f02  5144            subq.w  #8,d4
00006f04  4445            neg.w   d5
00006f06  5145            subq.w  #8,d5
00006f08  4445            neg.w   d5
00006f0a  5144            subq.w  #8,d4
00006f0c  4445            neg.w   d5
00006f0e  5145            subq.w  #8,d5
00006f10  4445            neg.w   d5
00006f12  5152            subq.w  #8,(a2)
00006f14  4445            neg.w   d5
00006f16  5151            subq.w  #8,(a1)
00006f18  4445            neg.w   d5
00006f1a  5152            subq.w  #8,(a2)
00006f1c  4445            neg.w   d5
00006f1e  5151            subq.w  #8,(a1)
00006f20  4445            neg.w   d5
00006f22  5154            subq.w  #8,ciabpra(a4)
00006f24  4445            neg.w   d5
00006f26  5155            subq.w  #8,(a5)
00006f28  4445            neg.w   d5
00006f2a  5154            subq.w  #8,ciabpra(a4)
00006f2c  4445            neg.w   d5
00006f2e  5155            subq.w  #8,(a5)
00006f30  4445            neg.w   d5
00006f32  5152            subq.w  #8,(a2)
00006f34  4445            neg.w   d5
00006f36  5151            subq.w  #8,(a1)
00006f38  4445            neg.w   d5
00006f3a  5152            subq.w  #8,(a2)
00006f3c  4445            neg.w   d5
00006f3e  5151            subq.w  #8,(a1)
00006f40  4445            neg.w   d5
00006f42  5154            subq.w  #8,ciabpra(a4)
00006f44  4445            neg.w   d5
00006f46  5155            subq.w  #8,(a5)
00006f48  4445            neg.w   d5
00006f4a  5154            subq.w  #8,ciabpra(a4)
00006f4c  4445            neg.w   d5
00006f4e  5155            subq.w  #8,(a5)
00006f50  2aaa aaaa       move.l  -5556(a2),(a5)
00006f54  4489            neg.l   a1
00006f56  4489            neg.l   a1
00006f58  552a a925       subq.b  #2,-56db(a2)
00006f5c  552a a4aa       subq.b  #2,-5b56(a2)
00006f60  aaaa            a-line
00006f62  aaaa            a-line
00006f64  aaaa            a-line
00006f66  aaaa            a-line
00006f68  aaaa            a-line
00006f6a  aaaa            a-line
00006f6c  aaaa            a-line
00006f6e  aaaa            a-line
00006f70  aaaa            a-line
00006f72  aaaa            a-line
00006f74  aaaa            a-line
00006f76  aaaa            a-line
00006f78  aaaa            a-line
00006f7a  aaaa            a-line
00006f7c  aaaa            a-line
00006f7e  aaaa            a-line
00006f80  aaaa            a-line
00006f82  aaaa            a-line
00006f84  aaaa            a-line
00006f86  a525            a-line
00006f88  2aaa aaaa       move.l  -5556(a2),(a5)
00006f8c  aaaa            a-line
00006f8e  aaaa            a-line
00006f90  aaa5            a-line
00006f92  292a aaa5       move.l  -555b(a2),-(a4)
00006f96  292a aaa5       move.l  -555b(a2),-(a4)
00006f9a  2929 2aa5       move.l  2aa5(a1),-(a4)
00006f9e  2929 2aa5       move.l  2aa5(a1),-(a4)
00006fa2  292a aaa5       move.l  -555b(a2),-(a4)
00006fa6  292a aaa5       move.l  -555b(a2),-(a4)
00006faa  2929 2aa5       move.l  2aa5(a1),-(a4)
00006fae  2929 2aa5       move.l  2aa5(a1),-(a4)
00006fb2  2924            move.l  -(a4),-(a4)
00006fb4  aaa5            a-line
00006fb6  2924            move.l  -(a4),-(a4)
00006fb8  aaa5            a-line
00006fba  2925            move.l  -(a5),-(a4)
00006fbc  2aa5            move.l  -(a5),(a5)
00006fbe  2925            move.l  -(a5),-(a4)
00006fc0  2aa5            move.l  -(a5),(a5)
00006fc2  2924            move.l  -(a4),-(a4)
00006fc4  aaa5            a-line
00006fc6  2924            move.l  -(a4),-(a4)
00006fc8  aaa5            a-line
00006fca  2925            move.l  -(a5),-(a4)
00006fcc  2aa5            move.l  -(a5),(a5)
00006fce  2925            move.l  -(a5),-(a4)
00006fd0  2aa5            move.l  -(a5),(a5)
00006fd2  292a aaa5       move.l  -555b(a2),-(a4)
00006fd6  292a aaa5       move.l  -555b(a2),-(a4)
00006fda  2929 2aa5       move.l  2aa5(a1),-(a4)
00006fde  2929 2aa5       move.l  2aa5(a1),-(a4)
00006fe2  292a aaa5       move.l  -555b(a2),-(a4)
00006fe6  292a aaa5       move.l  -555b(a2),-(a4)
00006fea  2929 2aa5       move.l  2aa5(a1),-(a4)
00006fee  2929 2aa5       move.l  2aa5(a1),-(a4)
00006ff2  2924            move.l  -(a4),-(a4)
00006ff4  aaa5            a-line
00006ff6  2924            move.l  -(a4),-(a4)
00006ff8  aaa5            a-line
00006ffa  2925            move.l  -(a5),-(a4)
00006ffc  2aa5            move.l  -(a5),(a5)
00006ffe  2925            move.l  -(a5),-(a4)
00007000  2aa5            move.l  -(a5),(a5)
00007002  2924            move.l  -(a4),-(a4)
00007004  aaa5            a-line
00007006  2924            move.l  -(a4),-(a4)
00007008  aaa5            a-line
0000700a  2925            move.l  -(a5),-(a4)
0000700c  2aa5            move.l  -(a5),(a5)
0000700e  2925            move.l  -(a5),-(a4)
00007010  2aa5            move.l  -(a5),(a5)
00007012  2912            move.l  (a2),-(a4)
00007014  aaa5            a-line
00007016  2912            move.l  (a2),-(a4)
00007018  aaa5            a-line
0000701a  2911            move.l  (a1),-(a4)
0000701c  2aa5            move.l  -(a5),(a5)
0000701e  2911            move.l  (a1),-(a4)
00007020  2aa5            move.l  -(a5),(a5)
00007022  2912            move.l  (a2),-(a4)
00007024  aaa5            a-line
00007026  2912            move.l  (a2),-(a4)
00007028  aaa5            a-line
0000702a  2911            move.l  (a1),-(a4)
0000702c  2aa5            move.l  -(a5),(a5)
0000702e  2911            move.l  (a1),-(a4)
00007030  2aa5            move.l  -(a5),(a5)
00007032  2914            move.l  (a4),-(a4)
00007034  aaa5            a-line
00007036  2914            move.l  (a4),-(a4)
00007038  aaa5            a-line
0000703a  2915            move.l  (a5),-(a4)
0000703c  2aa5            move.l  -(a5),(a5)
0000703e  2915            move.l  (a5),-(a4)
00007040  2aa5            move.l  -(a5),(a5)
00007042  2914            move.l  (a4),-(a4)
00007044  aaa5            a-line
00007046  2914            move.l  (a4),-(a4)
00007048  aaa5            a-line
0000704a  2915            move.l  (a5),-(a4)
0000704c  2aa5            move.l  -(a5),(a5)
0000704e  2915            move.l  (a5),-(a4)
00007050  2aa5            move.l  -(a5),(a5)
00007052  2912            move.l  (a2),-(a4)
00007054  aaa5            a-line
00007056  2912            move.l  (a2),-(a4)
00007058  aaa5            a-line
0000705a  2911            move.l  (a1),-(a4)
0000705c  2aa5            move.l  -(a5),(a5)
0000705e  2911            move.l  (a1),-(a4)
00007060  2aa5            move.l  -(a5),(a5)
00007062  2912            move.l  (a2),-(a4)
00007064  aaa5            a-line
00007066  2912            move.l  (a2),-(a4)
00007068  aaa5            a-line
0000706a  2911            move.l  (a1),-(a4)
0000706c  2aa5            move.l  -(a5),(a5)
0000706e  2911            move.l  (a1),-(a4)
00007070  2aa5            move.l  -(a5),(a5)
00007072  2914            move.l  (a4),-(a4)
00007074  aaa5            a-line
00007076  2914            move.l  (a4),-(a4)
00007078  aaa5            a-line
0000707a  2915            move.l  (a5),-(a4)
0000707c  2aa5            move.l  -(a5),(a5)
0000707e  2915            move.l  (a5),-(a4)
00007080  2aa5            move.l  -(a5),(a5)
00007082  2914            move.l  (a4),-(a4)
00007084  aaa5            a-line
00007086  2914            move.l  (a4),-(a4)
00007088  aaa5            a-line
0000708a  2915            move.l  (a5),-(a4)
0000708c  2aa5            move.l  -(a5),(a5)
0000708e  2915            move.l  (a5),-(a4)
00007090  2aa5            move.l  -(a5),(a5)
00007092  292a aaa5       move.l  -555b(a2),-(a4)
00007096  292a aaa5       move.l  -555b(a2),-(a4)
0000709a  2929 2aa5       move.l  2aa5(a1),-(a4)
0000709e  2929 2aa5       move.l  2aa5(a1),-(a4)
000070a2  292a aaa5       move.l  -555b(a2),-(a4)
000070a6  292a aaa5       move.l  -555b(a2),-(a4)
000070aa  2929 2aa5       move.l  2aa5(a1),-(a4)
000070ae  2929 2aa5       move.l  2aa5(a1),-(a4)
000070b2  2924            move.l  -(a4),-(a4)
000070b4  aaa5            a-line
000070b6  2924            move.l  -(a4),-(a4)
000070b8  aaa5            a-line
000070ba  2925            move.l  -(a5),-(a4)
000070bc  2aa5            move.l  -(a5),(a5)
000070be  2925            move.l  -(a5),-(a4)
000070c0  2aa5            move.l  -(a5),(a5)
000070c2  2924            move.l  -(a4),-(a4)
000070c4  aaa5            a-line
000070c6  2924            move.l  -(a4),-(a4)
000070c8  aaa5            a-line
000070ca  2925            move.l  -(a5),-(a4)
000070cc  2aa5            move.l  -(a5),(a5)
000070ce  2925            move.l  -(a5),-(a4)
000070d0  2aa5            move.l  -(a5),(a5)
000070d2  292a aaa5       move.l  -555b(a2),-(a4)
000070d6  292a aaa5       move.l  -555b(a2),-(a4)
000070da  2929 2aa5       move.l  2aa5(a1),-(a4)
000070de  2929 2aa5       move.l  2aa5(a1),-(a4)
000070e2  292a aaa5       move.l  -555b(a2),-(a4)
000070e6  292a aaa5       move.l  -555b(a2),-(a4)
000070ea  2929 2aa5       move.l  2aa5(a1),-(a4)
000070ee  2929 2aa5       move.l  2aa5(a1),-(a4)
000070f2  2924            move.l  -(a4),-(a4)
000070f4  aaa5            a-line
000070f6  2924            move.l  -(a4),-(a4)
000070f8  aaa5            a-line
000070fa  2925            move.l  -(a5),-(a4)
000070fc  2aa5            move.l  -(a5),(a5)
000070fe  2925            move.l  -(a5),-(a4)
00007100  2aa5            move.l  -(a5),(a5)
00007102  2924            move.l  -(a4),-(a4)
00007104  aaa5            a-line
00007106  2924            move.l  -(a4),-(a4)
00007108  aaa5            a-line
0000710a  2925            move.l  -(a5),-(a4)
0000710c  2aa5            move.l  -(a5),(a5)
0000710e  2925            move.l  -(a5),-(a4)
00007110  2aa5            move.l  -(a5),(a5)
00007112  2912            move.l  (a2),-(a4)
00007114  aaa5            a-line
00007116  2912            move.l  (a2),-(a4)
00007118  aaa5            a-line
0000711a  2911            move.l  (a1),-(a4)
0000711c  2aa5            move.l  -(a5),(a5)
0000711e  2911            move.l  (a1),-(a4)
00007120  2aa5            move.l  -(a5),(a5)
00007122  2912            move.l  (a2),-(a4)
00007124  aaa5            a-line
00007126  2912            move.l  (a2),-(a4)
00007128  aaa5            a-line
0000712a  2911            move.l  (a1),-(a4)
0000712c  2aa5            move.l  -(a5),(a5)
0000712e  2911            move.l  (a1),-(a4)
00007130  2aa5            move.l  -(a5),(a5)
00007132  2914            move.l  (a4),-(a4)
00007134  aaa5            a-line
00007136  2914            move.l  (a4),-(a4)
00007138  aaa5            a-line
0000713a  2915            move.l  (a5),-(a4)
0000713c  2aa5            move.l  -(a5),(a5)
0000713e  2915            move.l  (a5),-(a4)
00007140  2aa5            move.l  -(a5),(a5)
00007142  2914            move.l  (a4),-(a4)
00007144  aaa5            a-line
00007146  2914            move.l  (a4),-(a4)
00007148  aaa5            a-line
0000714a  2915            move.l  (a5),-(a4)
0000714c  2aa5            move.l  -(a5),(a5)
0000714e  2915            move.l  (a5),-(a4)
00007150  2aa5            move.l  -(a5),(a5)
00007152  2912            move.l  (a2),-(a4)
00007154  aaa5            a-line
00007156  2912            move.l  (a2),-(a4)
00007158  aaa5            a-line
0000715a  2911            move.l  (a1),-(a4)
0000715c  2aa5            move.l  -(a5),(a5)
0000715e  2911            move.l  (a1),-(a4)
00007160  2aa5            move.l  -(a5),(a5)
00007162  2912            move.l  (a2),-(a4)
00007164  aaa5            a-line
00007166  2912            move.l  (a2),-(a4)
00007168  aaa5            a-line
0000716a  2911            move.l  (a1),-(a4)
0000716c  2aa5            move.l  -(a5),(a5)
0000716e  2911            move.l  (a1),-(a4)
00007170  2aa5            move.l  -(a5),(a5)
00007172  2914            move.l  (a4),-(a4)
00007174  aaa5            a-line
00007176  2914            move.l  (a4),-(a4)
00007178  aaa5            a-line
0000717a  2915            move.l  (a5),-(a4)
0000717c  2aa5            move.l  -(a5),(a5)
0000717e  2915            move.l  (a5),-(a4)
00007180  2aa5            move.l  -(a5),(a5)
00007182  2914            move.l  (a4),-(a4)
00007184  aaa5            a-line
00007186  2914            move.l  (a4),-(a4)
00007188  aaa5            a-line
0000718a  2915            move.l  (a5),-(a4)
0000718c  2aa5            move.l  -(a5),(a5)
0000718e  2915            move.l  (a5),-(a4)
00007190  4445            neg.w   d5
00007192  512a 4445       subq.b  #8,4445(a2)
00007196  5129 4445       subq.b  #8,4445(a1)
0000719a  512a 4445       subq.b  #8,4445(a2)
0000719e  5129 4445       subq.b  #8,4445(a1)
000071a2  5124            subq.b  #8,-(a4)
000071a4  4445            neg.w   d5
000071a6  5125            subq.b  #8,-(a5)
000071a8  4445            neg.w   d5
000071aa  5124            subq.b  #8,-(a4)
000071ac  4445            neg.w   d5
000071ae  5125            subq.b  #8,-(a5)
000071b0  4445            neg.w   d5
000071b2  512a 4445       subq.b  #8,4445(a2)
000071b6  5129 4445       subq.b  #8,4445(a1)
000071ba  512a 4445       subq.b  #8,4445(a2)
000071be  5129 4445       subq.b  #8,4445(a1)
000071c2  5124            subq.b  #8,-(a4)
000071c4  4445            neg.w   d5
000071c6  5125            subq.b  #8,-(a5)
000071c8  4445            neg.w   d5
000071ca  5124            subq.b  #8,-(a4)
000071cc  4445            neg.w   d5
000071ce  5125            subq.b  #8,-(a5)
000071d0  4445            neg.w   d5
000071d2  5112            subq.b  #8,(a2)
000071d4  4445            neg.w   d5
000071d6  5111            subq.b  #8,(a1)
000071d8  4445            neg.w   d5
000071da  5112            subq.b  #8,(a2)
000071dc  4445            neg.w   d5
000071de  5111            subq.b  #8,(a1)
000071e0  4445            neg.w   d5
000071e2  5114            subq.b  #8,(a4)
000071e4  4445            neg.w   d5
000071e6  5115            subq.b  #8,(a5)
000071e8  4445            neg.w   d5
000071ea  5114            subq.b  #8,(a4)
000071ec  4445            neg.w   d5
000071ee  5115            subq.b  #8,(a5)
000071f0  4445            neg.w   d5
000071f2  5112            subq.b  #8,(a2)
000071f4  4445            neg.w   d5
000071f6  5111            subq.b  #8,(a1)
000071f8  4445            neg.w   d5
000071fa  5112            subq.b  #8,(a2)
000071fc  4445            neg.w   d5
000071fe  5111            subq.b  #8,(a1)
00007200  4445            neg.w   d5
00007202  5114            subq.b  #8,(a4)
00007204  4445            neg.w   d5
00007206  5115            subq.b  #8,(a5)
00007208  4445            neg.w   d5
0000720a  5114            subq.b  #8,(a4)
0000720c  4445            neg.w   d5
0000720e  5115            subq.b  #8,(a5)
00007210  4445            neg.w   d5
00007212  512a 4445       subq.b  #8,4445(a2)
00007216  5129 4445       subq.b  #8,4445(a1)
0000721a  512a 4445       subq.b  #8,4445(a2)
0000721e  5129 4445       subq.b  #8,4445(a1)
00007222  5124            subq.b  #8,-(a4)
00007224  4445            neg.w   d5
00007226  5125            subq.b  #8,-(a5)
00007228  4445            neg.w   d5
0000722a  5124            subq.b  #8,-(a4)
0000722c  4445            neg.w   d5
0000722e  5125            subq.b  #8,-(a5)
00007230  4445            neg.w   d5
00007232  512a 4445       subq.b  #8,4445(a2)
00007236  5129 4445       subq.b  #8,4445(a1)
0000723a  512a 4445       subq.b  #8,4445(a2)
0000723e  5129 4445       subq.b  #8,4445(a1)
00007242  5124            subq.b  #8,-(a4)
00007244  4445            neg.w   d5
00007246  5125            subq.b  #8,-(a5)
00007248  4445            neg.w   d5
0000724a  5124            subq.b  #8,-(a4)
0000724c  4445            neg.w   d5
0000724e  5125            subq.b  #8,-(a5)
00007250  4445            neg.w   d5
00007252  5112            subq.b  #8,(a2)
00007254  4445            neg.w   d5
00007256  5111            subq.b  #8,(a1)
00007258  4445            neg.w   d5
0000725a  5112            subq.b  #8,(a2)
0000725c  4445            neg.w   d5
0000725e  5111            subq.b  #8,(a1)
00007260  4445            neg.w   d5
00007262  5114            subq.b  #8,(a4)
00007264  4445            neg.w   d5
00007266  5115            subq.b  #8,(a5)
00007268  4445            neg.w   d5
0000726a  5114            subq.b  #8,(a4)
0000726c  4445            neg.w   d5
0000726e  5115            subq.b  #8,(a5)
00007270  4445            neg.w   d5
00007272  5112            subq.b  #8,(a2)
00007274  4445            neg.w   d5
00007276  5111            subq.b  #8,(a1)
00007278  4445            neg.w   d5
0000727a  5112            subq.b  #8,(a2)
0000727c  4445            neg.w   d5
0000727e  5111            subq.b  #8,(a1)
00007280  4445            neg.w   d5
00007282  5114            subq.b  #8,(a4)
00007284  4445            neg.w   d5
00007286  5115            subq.b  #8,(a5)
00007288  4445            neg.w   d5
0000728a  5114            subq.b  #8,(a4)
0000728c  4445            neg.w   d5
0000728e  5115            subq.b  #8,(a5)
00007290  4445            neg.w   d5
00007292  514a            subq.w  #8,a2
00007294  4445            neg.w   d5
00007296  5149            subq.w  #8,a1
00007298  4445            neg.w   d5
0000729a  514a            subq.w  #8,a2
0000729c  4445            neg.w   d5
0000729e  5149            subq.w  #8,a1
000072a0  4445            neg.w   d5
000072a2  5144            subq.w  #8,d4
000072a4  4445            neg.w   d5
000072a6  5145            subq.w  #8,d5
000072a8  4445            neg.w   d5
000072aa  5144            subq.w  #8,d4
000072ac  4445            neg.w   d5
000072ae  5145            subq.w  #8,d5
000072b0  4445            neg.w   d5
000072b2  514a            subq.w  #8,a2
000072b4  4445            neg.w   d5
000072b6  5149            subq.w  #8,a1
000072b8  4445            neg.w   d5
000072ba  514a            subq.w  #8,a2
000072bc  4445            neg.w   d5
000072be  5149            subq.w  #8,a1
000072c0  4445            neg.w   d5
000072c2  5144            subq.w  #8,d4
000072c4  4445            neg.w   d5
000072c6  5145            subq.w  #8,d5
000072c8  4445            neg.w   d5
000072ca  5144            subq.w  #8,d4
000072cc  4445            neg.w   d5
000072ce  5145            subq.w  #8,d5
000072d0  4445            neg.w   d5
000072d2  5152            subq.w  #8,(a2)
000072d4  4445            neg.w   d5
000072d6  5151            subq.w  #8,(a1)
000072d8  4445            neg.w   d5
000072da  5152            subq.w  #8,(a2)
000072dc  4445            neg.w   d5
000072de  5151            subq.w  #8,(a1)
000072e0  4445            neg.w   d5
000072e2  5154            subq.w  #8,(a4)
000072e4  4445            neg.w   d5
000072e6  5155            subq.w  #8,(a5)
000072e8  4445            neg.w   d5
000072ea  5154            subq.w  #8,(a4)
000072ec  4445            neg.w   d5
000072ee  5155            subq.w  #8,(a5)
000072f0  4445            neg.w   d5
000072f2  5152            subq.w  #8,(a2)
000072f4  4445            neg.w   d5
000072f6  5151            subq.w  #8,(a1)
000072f8  4445            neg.w   d5
000072fa  5152            subq.w  #8,(a2)
000072fc  4445            neg.w   d5
000072fe  5151            subq.w  #8,(a1)
00007300  4445            neg.w   d5
00007302  5154            subq.w  #8,(a4)
00007304  4445            neg.w   d5
00007306  5155            subq.w  #8,(a5)
00007308  4445            neg.w   d5
0000730a  5154            subq.w  #8,(a4)
0000730c  4445            neg.w   d5
0000730e  5155            subq.w  #8,(a5)
00007310  4445            neg.w   d5
00007312  514a            subq.w  #8,a2
00007314  4445            neg.w   d5
00007316  5149            subq.w  #8,a1
00007318  4445            neg.w   d5
0000731a  514a            subq.w  #8,a2
0000731c  4445            neg.w   d5
0000731e  5149            subq.w  #8,a1
00007320  4445            neg.w   d5
00007322  5144            subq.w  #8,d4
00007324  4445            neg.w   d5
00007326  5145            subq.w  #8,d5
00007328  4445            neg.w   d5
0000732a  5144            subq.w  #8,d4
0000732c  4445            neg.w   d5
0000732e  5145            subq.w  #8,d5
00007330  4445            neg.w   d5
00007332  514a            subq.w  #8,a2
00007334  4445            neg.w   d5
00007336  5149            subq.w  #8,a1
00007338  4445            neg.w   d5
0000733a  514a            subq.w  #8,a2
0000733c  4445            neg.w   d5
0000733e  5149            subq.w  #8,a1
00007340  4445            neg.w   d5
00007342  5144            subq.w  #8,d4
00007344  4445            neg.w   d5
00007346  5145            subq.w  #8,d5
00007348  4445            neg.w   d5
0000734a  5144            subq.w  #8,d4
0000734c  4445            neg.w   d5
0000734e  5145            subq.w  #8,d5
00007350  4445            neg.w   d5
00007352  5152            subq.w  #8,(a2)
00007354  4445            neg.w   d5
00007356  5151            subq.w  #8,(a1)
00007358  4445            neg.w   d5
0000735a  5152            subq.w  #8,(a2)
0000735c  4445            neg.w   d5
0000735e  5151            subq.w  #8,(a1)
00007360  4445            neg.w   d5
00007362  5154            subq.w  #8,(a4)
00007364  4445            neg.w   d5
00007366  5155            subq.w  #8,(a5)
00007368  4445            neg.w   d5
0000736a  5154            subq.w  #8,(a4)
0000736c  4445            neg.w   d5
0000736e  5155            subq.w  #8,(a5)
00007370  4445            neg.w   d5
00007372  5152            subq.w  #8,(a2)
00007374  4445            neg.w   d5
00007376  5151            subq.w  #8,(a1)
00007378  4445            neg.w   d5
0000737a  5152            subq.w  #8,(a2)
0000737c  4445            neg.w   d5
0000737e  5151            subq.w  #8,(a1)
00007380  4445            neg.w   d5
00007382  5154            subq.w  #8,(a4)
00007384  4445            neg.w   d5
00007386  5155            subq.w  #8,(a5)
00007388  4445            neg.w   d5
0000738a  5154            subq.w  #8,(a4)
0000738c  4445            neg.w   d5
0000738e  5155            subq.w  #8,(a5)
00007390  2aaa aaaa       move.l  -5556(a2),(a5)
00007394  4489            neg.l   a1
00007396  4489            neg.l   a1
00007398  552a a924       subq.b  #2,-56dc(a2)
0000739c  552a a529       subq.b  #2,-5ad7(a2)
000073a0  2aaa aaaa       move.l  -5556(a2),(a5)
000073a4  aaaa            a-line
000073a6  aaaa            a-line
000073a8  aaaa            a-line
000073aa  aaaa            a-line
000073ac  aaaa            a-line
000073ae  aaaa            a-line
000073b0  aaaa            a-line
000073b2  aaaa            a-line
000073b4  aaaa            a-line
000073b6  aaaa            a-line
000073b8  aaaa            a-line
000073ba  aaaa            a-line
000073bc  aaaa            a-line
000073be  aaaa            a-line
000073c0  aaaa            a-line
000073c2  aaaa            a-line
000073c4  aaaa            a-line
000073c6  a4a5            a-line
000073c8  2aaa aaaa       move.l  -5556(a2),(a5)
000073cc  aaaa            a-line
000073ce  aaaa            a-line
000073d0  aaa5            a-line
000073d2  294a aaa5       move.l  a2,-555b(a4)
000073d6  294a aaa5       move.l  a2,-555b(a4)
000073da  2949 2aa5       move.l  a1,2aa5(a4)
000073de  2949 2aa5       move.l  a1,2aa5(a4)
000073e2  294a aaa5       move.l  a2,-555b(a4)
000073e6  294a aaa5       move.l  a2,-555b(a4)
000073ea  2949 2aa5       move.l  a1,2aa5(a4)
000073ee  2949 2aa5       move.l  a1,2aa5(a4)
000073f2  2944 aaa5       move.l  d4,-555b(a4)
000073f6  2944 aaa5       move.l  d4,-555b(a4)
000073fa  2945 2aa5       move.l  d5,2aa5(a4)
000073fe  2945 2aa5       move.l  d5,2aa5(a4)
00007402  2944 aaa5       move.l  d4,-555b(a4)
00007406  2944 aaa5       move.l  d4,-555b(a4)
0000740a  2945 2aa5       move.l  d5,2aa5(a4)
0000740e  2945 2aa5       move.l  d5,2aa5(a4)
00007412  294a aaa5       move.l  a2,-555b(a4)
00007416  294a aaa5       move.l  a2,-555b(a4)
0000741a  2949 2aa5       move.l  a1,2aa5(a4)
0000741e  2949 2aa5       move.l  a1,2aa5(a4)
00007422  294a aaa5       move.l  a2,-555b(a4)
00007426  294a aaa5       move.l  a2,-555b(a4)
0000742a  2949 2aa5       move.l  a1,2aa5(a4)
0000742e  2949 2aa5       move.l  a1,2aa5(a4)
00007432  2944 aaa5       move.l  d4,-555b(a4)
00007436  2944 aaa5       move.l  d4,-555b(a4)
0000743a  2945 2aa5       move.l  d5,2aa5(a4)
0000743e  2945 2aa5       move.l  d5,2aa5(a4)
00007442  2944 aaa5       move.l  d4,-555b(a4)
00007446  2944 aaa5       move.l  d4,-555b(a4)
0000744a  2945 2aa5       move.l  d5,2aa5(a4)
0000744e  2945 2aa5       move.l  d5,2aa5(a4)
00007452  2952 aaa5       move.l  (a2),-555b(a4)
00007456  2952 aaa5       move.l  (a2),-555b(a4)
0000745a  2951 2aa5       move.l  (a1),2aa5(a4)
0000745e  2951 2aa5       move.l  (a1),2aa5(a4)
00007462  2952 aaa5       move.l  (a2),-555b(a4)
00007466  2952 aaa5       move.l  (a2),-555b(a4)
0000746a  2951 2aa5       move.l  (a1),2aa5(a4)
0000746e  2951 2aa5       move.l  (a1),2aa5(a4)
00007472  2954 aaa5       move.l  (a4),-555b(a4)
00007476  2954 aaa5       move.l  (a4),-555b(a4)
0000747a  2955 2aa5       move.l  (a5),2aa5(a4)
0000747e  2955 2aa5       move.l  (a5),2aa5(a4)
00007482  2954 aaa5       move.l  (a4),-555b(a4)
00007486  2954 aaa5       move.l  (a4),-555b(a4)
0000748a  2955 2aa5       move.l  (a5),2aa5(a4)
0000748e  2955 2aa5       move.l  (a5),2aa5(a4)
00007492  2952 aaa5       move.l  (a2),-555b(a4)
00007496  2952 aaa5       move.l  (a2),-555b(a4)
0000749a  2951 2aa5       move.l  (a1),2aa5(a4)
0000749e  2951 2aa5       move.l  (a1),2aa5(a4)
000074a2  2952 aaa5       move.l  (a2),-555b(a4)
000074a6  2952 aaa5       move.l  (a2),-555b(a4)
000074aa  2951 2aa5       move.l  (a1),2aa5(a4)
000074ae  2951 2aa5       move.l  (a1),2aa5(a4)
000074b2  2954 aaa5       move.l  (a4),-555b(a4)
000074b6  2954 aaa5       move.l  (a4),-555b(a4)
000074ba  2955 2aa5       move.l  (a5),2aa5(a4)
000074be  2955 2aa5       move.l  (a5),2aa5(a4)
000074c2  2954 aaa5       move.l  (a4),-555b(a4)
000074c6  2954 aaa5       move.l  (a4),-555b(a4)
000074ca  2955 2aa5       move.l  (a5),2aa5(a4)
000074ce  2955 2aa5       move.l  (a5),2aa5(a4)
000074d2  294a aaa5       move.l  a2,-555b(a4)
000074d6  294a aaa5       move.l  a2,-555b(a4)
000074da  2949 2aa5       move.l  a1,2aa5(a4)
000074de  2949 2aa5       move.l  a1,2aa5(a4)
000074e2  294a aaa5       move.l  a2,-555b(a4)
000074e6  294a aaa5       move.l  a2,-555b(a4)
000074ea  2949 2aa5       move.l  a1,2aa5(a4)
000074ee  2949 2aa5       move.l  a1,2aa5(a4)
000074f2  2944 aaa5       move.l  d4,-555b(a4)
000074f6  2944 aaa5       move.l  d4,-555b(a4)
000074fa  2945 2aa5       move.l  d5,2aa5(a4)
000074fe  2945 2aa5       move.l  d5,2aa5(a4)
00007502  2944 aaa5       move.l  d4,-555b(a4)
00007506  2944 aaa5       move.l  d4,-555b(a4)
0000750a  2945 2aa5       move.l  d5,2aa5(a4)
0000750e  2945 2aa5       move.l  d5,2aa5(a4)
00007512  294a aaa5       move.l  a2,-555b(a4)
00007516  294a aaa5       move.l  a2,-555b(a4)
0000751a  2949 2aa5       move.l  a1,2aa5(a4)
0000751e  2949 2aa5       move.l  a1,2aa5(a4)
00007522  294a aaa5       move.l  a2,-555b(a4)
00007526  294a aaa5       move.l  a2,-555b(a4)
0000752a  2949 2aa5       move.l  a1,2aa5(a4)
0000752e  2949 2aa5       move.l  a1,2aa5(a4)
00007532  2944 aaa5       move.l  d4,-555b(a4)
00007536  2944 aaa5       move.l  d4,-555b(a4)
0000753a  2945 2aa5       move.l  d5,2aa5(a4)
0000753e  2945 2aa5       move.l  d5,2aa5(a4)
00007542  2944 aaa5       move.l  d4,-555b(a4)
00007546  2944 aaa5       move.l  d4,-555b(a4)
0000754a  2945 2aa5       move.l  d5,2aa5(a4)
0000754e  2945 2aa5       move.l  d5,2aa5(a4)
00007552  2952 aaa5       move.l  (a2),-555b(a4)
00007556  2952 aaa5       move.l  (a2),-555b(a4)
0000755a  2951 2aa5       move.l  (a1),2aa5(a4)
0000755e  2951 2aa5       move.l  (a1),2aa5(a4)
00007562  2952 aaa5       move.l  (a2),-555b(a4)
00007566  2952 aaa5       move.l  (a2),-555b(a4)
0000756a  2951 2aa5       move.l  (a1),2aa5(a4)
0000756e  2951 2aa5       move.l  (a1),2aa5(a4)
00007572  2954 aaa5       move.l  (a4),-555b(a4)
00007576  2954 aaa5       move.l  (a4),-555b(a4)
0000757a  2955 2aa5       move.l  (a5),2aa5(a4)
0000757e  2955 2aa5       move.l  (a5),2aa5(a4)
00007582  2954 aaa5       move.l  (a4),-555b(a4)
00007586  2954 aaa5       move.l  (a4),-555b(a4)
0000758a  2955 2aa5       move.l  (a5),2aa5(a4)
0000758e  2955 2aa5       move.l  (a5),2aa5(a4)
00007592  2952 aaa5       move.l  (a2),-555b(a4)
00007596  2952 aaa5       move.l  (a2),-555b(a4)
0000759a  2951 2aa5       move.l  (a1),2aa5(a4)
0000759e  2951 2aa5       move.l  (a1),2aa5(a4)
000075a2  2952 aaa5       move.l  (a2),-555b(a4)
000075a6  2952 aaa5       move.l  (a2),-555b(a4)
000075aa  2951 2aa5       move.l  (a1),2aa5(a4)
000075ae  2951 2aa5       move.l  (a1),2aa5(a4)
000075b2  2954 aaa5       move.l  (a4),-555b(a4)
000075b6  2954 aaa5       move.l  (a4),-555b(a4)
000075ba  2955 2aa5       move.l  (a5),2aa5(a4)
000075be  2955 2aa5       move.l  (a5),2aa5(a4)
000075c2  2954 aaa5       move.l  (a4),-555b(a4)
000075c6  2954 aaa5       move.l  (a4),-555b(a4)
000075ca  2955 2aa5       move.l  (a5),2aa5(a4)
000075ce  2955 4445       move.l  (a5),4445(a4)
000075d2  512a 4445       subq.b  #8,4445(a2)
000075d6  5129 4445       subq.b  #8,4445(a1)
000075da  512a 4445       subq.b  #8,4445(a2)
000075de  5129 4445       subq.b  #8,4445(a1)
000075e2  5124            subq.b  #8,-(a4)
000075e4  4445            neg.w   d5
000075e6  5125            subq.b  #8,-(a5)
000075e8  4445            neg.w   d5
000075ea  5124            subq.b  #8,-(a4)
000075ec  4445            neg.w   d5
000075ee  5125            subq.b  #8,-(a5)
000075f0  4445            neg.w   d5
000075f2  512a 4445       subq.b  #8,4445(a2)
000075f6  5129 4445       subq.b  #8,4445(a1)
000075fa  512a 4445       subq.b  #8,4445(a2)
000075fe  5129 4445       subq.b  #8,4445(a1)
00007602  5124            subq.b  #8,-(a4)
00007604  4445            neg.w   d5
00007606  5125            subq.b  #8,-(a5)
00007608  4445            neg.w   d5
0000760a  5124            subq.b  #8,-(a4)
0000760c  4445            neg.w   d5
0000760e  5125            subq.b  #8,-(a5)
00007610  4445            neg.w   d5
00007612  5112            subq.b  #8,(a2)
00007614  4445            neg.w   d5
00007616  5111            subq.b  #8,(a1)
00007618  4445            neg.w   d5
0000761a  5112            subq.b  #8,(a2)
0000761c  4445            neg.w   d5
0000761e  5111            subq.b  #8,(a1)
00007620  4445            neg.w   d5
00007622  5114            subq.b  #8,(a4)
00007624  4445            neg.w   d5
00007626  5115            subq.b  #8,(a5)
00007628  4445            neg.w   d5
0000762a  5114            subq.b  #8,(a4)
0000762c  4445            neg.w   d5
0000762e  5115            subq.b  #8,(a5)
00007630  4445            neg.w   d5
00007632  5112            subq.b  #8,(a2)
00007634  4445            neg.w   d5
00007636  5111            subq.b  #8,(a1)
00007638  4445            neg.w   d5
0000763a  5112            subq.b  #8,(a2)
0000763c  4445            neg.w   d5
0000763e  5111            subq.b  #8,(a1)
00007640  4445            neg.w   d5
00007642  5114            subq.b  #8,(a4)
00007644  4445            neg.w   d5
00007646  5115            subq.b  #8,(a5)
00007648  4445            neg.w   d5
0000764a  5114            subq.b  #8,(a4)
0000764c  4445            neg.w   d5
0000764e  5115            subq.b  #8,(a5)
00007650  4445            neg.w   d5
00007652  512a 4445       subq.b  #8,4445(a2)
00007656  5129 4445       subq.b  #8,4445(a1)
0000765a  512a 4445       subq.b  #8,4445(a2)
0000765e  5129 4445       subq.b  #8,4445(a1)
00007662  5124            subq.b  #8,-(a4)
00007664  4445            neg.w   d5
00007666  5125            subq.b  #8,-(a5)
00007668  4445            neg.w   d5
0000766a  5124            subq.b  #8,-(a4)
0000766c  4445            neg.w   d5
0000766e  5125            subq.b  #8,-(a5)
00007670  4445            neg.w   d5
00007672  512a 4445       subq.b  #8,4445(a2)
00007676  5129 4445       subq.b  #8,4445(a1)
0000767a  512a 4445       subq.b  #8,4445(a2)
0000767e  5129 4445       subq.b  #8,4445(a1)
00007682  5124            subq.b  #8,-(a4)
00007684  4445            neg.w   d5
00007686  5125            subq.b  #8,-(a5)
00007688  4445            neg.w   d5
0000768a  5124            subq.b  #8,-(a4)
0000768c  4445            neg.w   d5
0000768e  5125            subq.b  #8,-(a5)
00007690  4445            neg.w   d5
00007692  5112            subq.b  #8,(a2)
00007694  4445            neg.w   d5
00007696  5111            subq.b  #8,(a1)
00007698  4445            neg.w   d5
0000769a  5112            subq.b  #8,(a2)
0000769c  4445            neg.w   d5
0000769e  5111            subq.b  #8,(a1)
000076a0  4445            neg.w   d5
000076a2  5114            subq.b  #8,(a4)
000076a4  4445            neg.w   d5
000076a6  5115            subq.b  #8,(a5)
000076a8  4445            neg.w   d5
000076aa  5114            subq.b  #8,(a4)
000076ac  4445            neg.w   d5
000076ae  5115            subq.b  #8,(a5)
000076b0  4445            neg.w   d5
000076b2  5112            subq.b  #8,(a2)
000076b4  4445            neg.w   d5
000076b6  5111            subq.b  #8,(a1)
000076b8  4445            neg.w   d5
000076ba  5112            subq.b  #8,(a2)
000076bc  4445            neg.w   d5
000076be  5111            subq.b  #8,(a1)
000076c0  4445            neg.w   d5
000076c2  5114            subq.b  #8,(a4)
000076c4  4445            neg.w   d5
000076c6  5115            subq.b  #8,(a5)
000076c8  4445            neg.w   d5
000076ca  5114            subq.b  #8,(a4)
000076cc  4445            neg.w   d5
000076ce  5115            subq.b  #8,(a5)
000076d0  4445            neg.w   d5
000076d2  514a            subq.w  #8,a2
000076d4  4445            neg.w   d5
000076d6  5149            subq.w  #8,a1
000076d8  4445            neg.w   d5
000076da  514a            subq.w  #8,a2
000076dc  4445            neg.w   d5
000076de  5149            subq.w  #8,a1
000076e0  4445            neg.w   d5
000076e2  5144            subq.w  #8,d4
000076e4  4445            neg.w   d5
000076e6  5145            subq.w  #8,d5
000076e8  4445            neg.w   d5
000076ea  5144            subq.w  #8,d4
000076ec  4445            neg.w   d5
000076ee  5145            subq.w  #8,d5
000076f0  4445            neg.w   d5
000076f2  514a            subq.w  #8,a2
000076f4  4445            neg.w   d5
000076f6  5149            subq.w  #8,a1
000076f8  4445            neg.w   d5
000076fa  514a            subq.w  #8,a2
000076fc  4445            neg.w   d5
000076fe  5149            subq.w  #8,a1
00007700  4445            neg.w   d5
00007702  5144            subq.w  #8,d4
00007704  4445            neg.w   d5
00007706  5145            subq.w  #8,d5
00007708  4445            neg.w   d5
0000770a  5144            subq.w  #8,d4
0000770c  4445            neg.w   d5
0000770e  5145            subq.w  #8,d5
00007710  4445            neg.w   d5
00007712  5152            subq.w  #8,(a2)
00007714  4445            neg.w   d5
00007716  5151            subq.w  #8,(a1)
00007718  4445            neg.w   d5
0000771a  5152            subq.w  #8,(a2)
0000771c  4445            neg.w   d5
0000771e  5151            subq.w  #8,(a1)
00007720  4445            neg.w   d5
00007722  5154            subq.w  #8,(a4)
00007724  4445            neg.w   d5
00007726  5155            subq.w  #8,(a5)
00007728  4445            neg.w   d5
0000772a  5154            subq.w  #8,(a4)
0000772c  4445            neg.w   d5
0000772e  5155            subq.w  #8,(a5)
00007730  4445            neg.w   d5
00007732  5152            subq.w  #8,(a2)
00007734  4445            neg.w   d5
00007736  5151            subq.w  #8,(a1)
00007738  4445            neg.w   d5
0000773a  5152            subq.w  #8,(a2)
0000773c  4445            neg.w   d5
0000773e  5151            subq.w  #8,(a1)
00007740  4445            neg.w   d5
00007742  5154            subq.w  #8,(a4)
00007744  4445            neg.w   d5
00007746  5155            subq.w  #8,(a5)
00007748  4445            neg.w   d5
0000774a  5154            subq.w  #8,(a4)
0000774c  4445            neg.w   d5
0000774e  5155            subq.w  #8,(a5)
00007750  4445            neg.w   d5
00007752  514a            subq.w  #8,a2
00007754  4445            neg.w   d5
00007756  5149            subq.w  #8,a1
00007758  4445            neg.w   d5
0000775a  514a            subq.w  #8,a2
0000775c  4445            neg.w   d5
0000775e  5149            subq.w  #8,a1
00007760  4445            neg.w   d5
00007762  5144            subq.w  #8,d4
00007764  4445            neg.w   d5
00007766  5145            subq.w  #8,d5
00007768  4445            neg.w   d5
0000776a  5144            subq.w  #8,d4
0000776c  4445            neg.w   d5
0000776e  5145            subq.w  #8,d5
00007770  4445            neg.w   d5
00007772  514a            subq.w  #8,a2
00007774  4445            neg.w   d5
00007776  5149            subq.w  #8,a1
00007778  4445            neg.w   d5
0000777a  514a            subq.w  #8,a2
0000777c  4445            neg.w   d5
0000777e  5149            subq.w  #8,a1
00007780  4445            neg.w   d5
00007782  5144            subq.w  #8,d4
00007784  4445            neg.w   d5
00007786  5145            subq.w  #8,d5
00007788  4445            neg.w   d5
0000778a  5144            subq.w  #8,d4
0000778c  4445            neg.w   d5
0000778e  5145            subq.w  #8,d5
00007790  4445            neg.w   d5
00007792  5152            subq.w  #8,(a2)
00007794  4445            neg.w   d5
00007796  5151            subq.w  #8,(a1)
00007798  4445            neg.w   d5
0000779a  5152            subq.w  #8,(a2)
0000779c  4445            neg.w   d5
0000779e  5151            subq.w  #8,(a1)
000077a0  4445            neg.w   d5
000077a2  5154            subq.w  #8,(a4)
000077a4  4445            neg.w   d5
000077a6  5155            subq.w  #8,(a5)
000077a8  4445            neg.w   d5
000077aa  5154            subq.w  #8,(a4)
000077ac  4445            neg.w   d5
000077ae  5155            subq.w  #8,(a5)
000077b0  4445            neg.w   d5
000077b2  5152            subq.w  #8,(a2)
000077b4  4445            neg.w   d5
000077b6  5151            subq.w  #8,(a1)
000077b8  4445            neg.w   d5
000077ba  5152            subq.w  #8,(a2)
000077bc  4445            neg.w   d5
000077be  5151            subq.w  #8,(a1)
000077c0  4445            neg.w   d5
000077c2  5154            subq.w  #8,(a4)
000077c4  4445            neg.w   d5
000077c6  5155            subq.w  #8,(a5)
000077c8  4445            neg.w   d5
000077ca  5154            subq.w  #8,(a4)
000077cc  4445            neg.w   d5
000077ce  5155            subq.w  #8,(a5)
000077d0  2aaa aaaa       move.l  -5556(a2),(a5)
000077d4  4489            neg.l   a1
000077d6  4489            neg.l   a1
000077d8  552a a4a4       subq.b  #2,-5b5c(a2)
000077dc  552a aaaa       subq.b  #2,-5556(a2)
000077e0  aaaa            a-line
000077e2  aaaa            a-line
000077e4  aaaa            a-line
000077e6  aaaa            a-line
000077e8  aaaa            a-line
000077ea  aaaa            a-line
000077ec  aaaa            a-line
000077ee  aaaa            a-line
000077f0  aaaa            a-line
000077f2  aaaa            a-line
000077f4  aaaa            a-line
000077f6  aaaa            a-line
000077f8  aaaa            a-line
000077fa  aaaa            a-line
000077fc  aaaa            a-line
000077fe  aaaa            a-line
00007800  aaaa            a-line
00007802  aaaa            a-line
00007804  aaaa            a-line
00007806  a4a4            a-line
00007808  aaaa            a-line
0000780a  aaaa            a-line
0000780c  aaaa            a-line
0000780e  aaaa            a-line
00007810  aaa5            a-line
00007812  292a aaa5       move.l  -555b(a2),-(a4)
00007816  292a aaa5       move.l  -555b(a2),-(a4)
0000781a  2929 2aa5       move.l  2aa5(a1),-(a4)
0000781e  2929 2aa5       move.l  2aa5(a1),-(a4)
00007822  292a aaa5       move.l  -555b(a2),-(a4)
00007826  292a aaa5       move.l  -555b(a2),-(a4)
0000782a  2929 2aa5       move.l  2aa5(a1),-(a4)
0000782e  2929 2aa5       move.l  2aa5(a1),-(a4)
00007832  2924            move.l  -(a4),-(a4)
00007834  aaa5            a-line
00007836  2924            move.l  -(a4),-(a4)
00007838  aaa5            a-line
0000783a  2925            move.l  -(a5),-(a4)
0000783c  2aa5            move.l  -(a5),(a5)
0000783e  2925            move.l  -(a5),-(a4)
00007840  2aa5            move.l  -(a5),(a5)
00007842  2924            move.l  -(a4),-(a4)
00007844  aaa5            a-line
00007846  2924            move.l  -(a4),-(a4)
00007848  aaa5            a-line
0000784a  2925            move.l  -(a5),-(a4)
0000784c  2aa5            move.l  -(a5),(a5)
0000784e  2925            move.l  -(a5),-(a4)
00007850  2aa5            move.l  -(a5),(a5)
00007852  292a aaa5       move.l  -555b(a2),-(a4)
00007856  292a aaa5       move.l  -555b(a2),-(a4)
0000785a  2929 2aa5       move.l  2aa5(a1),-(a4)
0000785e  2929 2aa5       move.l  2aa5(a1),-(a4)
00007862  292a aaa5       move.l  -555b(a2),-(a4)
00007866  292a aaa5       move.l  -555b(a2),-(a4)
0000786a  2929 2aa5       move.l  2aa5(a1),-(a4)
0000786e  2929 2aa5       move.l  2aa5(a1),-(a4)
00007872  2924            move.l  -(a4),-(a4)
00007874  aaa5            a-line
00007876  2924            move.l  -(a4),-(a4)
00007878  aaa5            a-line
0000787a  2925            move.l  -(a5),-(a4)
0000787c  2aa5            move.l  -(a5),(a5)
0000787e  2925            move.l  -(a5),-(a4)
00007880  2aa5            move.l  -(a5),(a5)
00007882  2924            move.l  -(a4),-(a4)
00007884  aaa5            a-line
00007886  2924            move.l  -(a4),-(a4)
00007888  aaa5            a-line
0000788a  2925            move.l  -(a5),-(a4)
0000788c  2aa5            move.l  -(a5),(a5)
0000788e  2925            move.l  -(a5),-(a4)
00007890  2aa5            move.l  -(a5),(a5)
00007892  2912            move.l  (a2),-(a4)
00007894  aaa5            a-line
00007896  2912            move.l  (a2),-(a4)
00007898  aaa5            a-line
0000789a  2911            move.l  (a1),-(a4)
0000789c  2aa5            move.l  -(a5),(a5)
0000789e  2911            move.l  (a1),-(a4)
000078a0  2aa5            move.l  -(a5),(a5)
000078a2  2912            move.l  (a2),-(a4)
000078a4  aaa5            a-line
000078a6  2912            move.l  (a2),-(a4)
000078a8  aaa5            a-line
000078aa  2911            move.l  (a1),-(a4)
000078ac  2aa5            move.l  -(a5),(a5)
000078ae  2911            move.l  (a1),-(a4)
000078b0  2aa5            move.l  -(a5),(a5)
000078b2  2914            move.l  (a4),-(a4)
000078b4  aaa5            a-line
000078b6  2914            move.l  (a4),-(a4)
000078b8  aaa5            a-line
000078ba  2915            move.l  (a5),-(a4)
000078bc  2aa5            move.l  -(a5),(a5)
000078be  2915            move.l  (a5),-(a4)
000078c0  2aa5            move.l  -(a5),(a5)
000078c2  2914            move.l  (a4),-(a4)
000078c4  aaa5            a-line
000078c6  2914            move.l  (a4),-(a4)
000078c8  aaa5            a-line
000078ca  2915            move.l  (a5),-(a4)
000078cc  2aa5            move.l  -(a5),(a5)
000078ce  2915            move.l  (a5),-(a4)
000078d0  2aa5            move.l  -(a5),(a5)
000078d2  2912            move.l  (a2),-(a4)
000078d4  aaa5            a-line
000078d6  2912            move.l  (a2),-(a4)
000078d8  aaa5            a-line
000078da  2911            move.l  (a1),-(a4)
000078dc  2aa5            move.l  -(a5),(a5)
000078de  2911            move.l  (a1),-(a4)
000078e0  2aa5            move.l  -(a5),(a5)
000078e2  2912            move.l  (a2),-(a4)
000078e4  aaa5            a-line
000078e6  2912            move.l  (a2),-(a4)
000078e8  aaa5            a-line
000078ea  2911            move.l  (a1),-(a4)
000078ec  2aa5            move.l  -(a5),(a5)
000078ee  2911            move.l  (a1),-(a4)
000078f0  2aa5            move.l  -(a5),(a5)
000078f2  2914            move.l  (a4),-(a4)
000078f4  aaa5            a-line
000078f6  2914            move.l  (a4),-(a4)
000078f8  aaa5            a-line
000078fa  2915            move.l  (a5),-(a4)
000078fc  2aa5            move.l  -(a5),(a5)
000078fe  2915            move.l  (a5),-(a4)
00007900  2aa5            move.l  -(a5),(a5)
00007902  2914            move.l  (a4),-(a4)
00007904  aaa5            a-line
00007906  2914            move.l  (a4),-(a4)
00007908  aaa5            a-line
0000790a  2915            move.l  (a5),-(a4)
0000790c  2aa5            move.l  -(a5),(a5)
0000790e  2915            move.l  (a5),-(a4)
00007910  2aa5            move.l  -(a5),(a5)
00007912  292a aaa5       move.l  -555b(a2),-(a4)
00007916  292a aaa5       move.l  -555b(a2),-(a4)
0000791a  2929 2aa5       move.l  2aa5(a1),-(a4)
0000791e  2929 2aa5       move.l  2aa5(a1),-(a4)
00007922  292a aaa5       move.l  -555b(a2),-(a4)
00007926  292a aaa5       move.l  -555b(a2),-(a4)
0000792a  2929 2aa5       move.l  2aa5(a1),-(a4)
0000792e  2929 2aa5       move.l  2aa5(a1),-(a4)
00007932  2924            move.l  -(a4),-(a4)
00007934  aaa5            a-line
00007936  2924            move.l  -(a4),-(a4)
00007938  aaa5            a-line
0000793a  2925            move.l  -(a5),-(a4)
0000793c  2aa5            move.l  -(a5),(a5)
0000793e  2925            move.l  -(a5),-(a4)
00007940  2aa5            move.l  -(a5),(a5)
00007942  2924            move.l  -(a4),-(a4)
00007944  aaa5            a-line
00007946  2924            move.l  -(a4),-(a4)
00007948  aaa5            a-line
0000794a  2925            move.l  -(a5),-(a4)
0000794c  2aa5            move.l  -(a5),(a5)
0000794e  2925            move.l  -(a5),-(a4)
00007950  2aa5            move.l  -(a5),(a5)
00007952  292a aaa5       move.l  -555b(a2),-(a4)
00007956  292a aaa5       move.l  -555b(a2),-(a4)
0000795a  2929 2aa5       move.l  2aa5(a1),-(a4)
0000795e  2929 2aa5       move.l  2aa5(a1),-(a4)
00007962  292a aaa5       move.l  -555b(a2),-(a4)
00007966  292a aaa5       move.l  -555b(a2),-(a4)
0000796a  2929 2aa5       move.l  2aa5(a1),-(a4)
0000796e  2929 2aa5       move.l  2aa5(a1),-(a4)
00007972  2924            move.l  -(a4),-(a4)
00007974  aaa5            a-line
00007976  2924            move.l  -(a4),-(a4)
00007978  aaa5            a-line
0000797a  2925            move.l  -(a5),-(a4)
0000797c  2aa5            move.l  -(a5),(a5)
0000797e  2925            move.l  -(a5),-(a4)
00007980  2aa5            move.l  -(a5),(a5)
00007982  2924            move.l  -(a4),-(a4)
00007984  aaa5            a-line
00007986  2924            move.l  -(a4),-(a4)
00007988  aaa5            a-line
0000798a  2925            move.l  -(a5),-(a4)
0000798c  2aa5            move.l  -(a5),(a5)
0000798e  2925            move.l  -(a5),-(a4)
00007990  2aa5            move.l  -(a5),(a5)
00007992  2912            move.l  (a2),-(a4)
00007994  aaa5            a-line
00007996  2912            move.l  (a2),-(a4)
00007998  aaa5            a-line
0000799a  2911            move.l  (a1),-(a4)
0000799c  2aa5            move.l  -(a5),(a5)
0000799e  2911            move.l  (a1),-(a4)
000079a0  2aa5            move.l  -(a5),(a5)
000079a2  2912            move.l  (a2),-(a4)
000079a4  aaa5            a-line
000079a6  2912            move.l  (a2),-(a4)
000079a8  aaa5            a-line
000079aa  2911            move.l  (a1),-(a4)
000079ac  2aa5            move.l  -(a5),(a5)
000079ae  2911            move.l  (a1),-(a4)
000079b0  2aa5            move.l  -(a5),(a5)
000079b2  2914            move.l  (a4),-(a4)
000079b4  aaa5            a-line
000079b6  2914            move.l  (a4),-(a4)
000079b8  aaa5            a-line
000079ba  2915            move.l  (a5),-(a4)
000079bc  2aa5            move.l  -(a5),(a5)
000079be  2915            move.l  (a5),-(a4)
000079c0  2aa5            move.l  -(a5),(a5)
000079c2  2914            move.l  (a4),-(a4)
000079c4  aaa5            a-line
000079c6  2914            move.l  (a4),-(a4)
000079c8  aaa5            a-line
000079ca  2915            move.l  (a5),-(a4)
000079cc  2aa5            move.l  -(a5),(a5)
000079ce  2915            move.l  (a5),-(a4)
000079d0  2aa5            move.l  -(a5),(a5)
000079d2  2912            move.l  (a2),-(a4)
000079d4  aaa5            a-line
000079d6  2912            move.l  (a2),-(a4)
000079d8  aaa5            a-line
000079da  2911            move.l  (a1),-(a4)
000079dc  2aa5            move.l  -(a5),(a5)
000079de  2911            move.l  (a1),-(a4)
000079e0  2aa5            move.l  -(a5),(a5)
000079e2  2912            move.l  (a2),-(a4)
000079e4  aaa5            a-line
000079e6  2912            move.l  (a2),-(a4)
000079e8  aaa5            a-line
000079ea  2911            move.l  (a1),-(a4)
000079ec  2aa5            move.l  -(a5),(a5)
000079ee  2911            move.l  (a1),-(a4)
000079f0  2aa5            move.l  -(a5),(a5)
000079f2  2914            move.l  (a4),-(a4)
000079f4  aaa5            a-line
000079f6  2914            move.l  (a4),-(a4)
000079f8  aaa5            a-line
000079fa  2915            move.l  (a5),-(a4)
000079fc  2aa5            move.l  -(a5),(a5)
000079fe  2915            move.l  (a5),-(a4)
00007a00  2aa5            move.l  -(a5),(a5)
00007a02  2914            move.l  (a4),-(a4)
00007a04  aaa5            a-line
00007a06  2914            move.l  (a4),-(a4)
00007a08  aaa5            a-line
00007a0a  2915            move.l  (a5),-(a4)
00007a0c  2aa5            move.l  -(a5),(a5)
00007a0e  2915            move.l  (a5),-(a4)
00007a10  4445            neg.w   d5
00007a12  552a 4445       subq.b  #2,4445(a2)
00007a16  5529 4445       subq.b  #2,4445(a1)
00007a1a  552a 4445       subq.b  #2,4445(a2)
00007a1e  5529 4445       subq.b  #2,4445(a1)
00007a22  5524            subq.b  #2,-(a4)
00007a24  4445            neg.w   d5
00007a26  5525            subq.b  #2,-(a5)
00007a28  4445            neg.w   d5
00007a2a  5524            subq.b  #2,-(a4)
00007a2c  4445            neg.w   d5
00007a2e  5525            subq.b  #2,-(a5)
00007a30  4445            neg.w   d5
00007a32  552a 4445       subq.b  #2,4445(a2)
00007a36  5529 4445       subq.b  #2,4445(a1)
00007a3a  552a 4445       subq.b  #2,4445(a2)
00007a3e  5529 4445       subq.b  #2,4445(a1)
00007a42  5524            subq.b  #2,-(a4)
00007a44  4445            neg.w   d5
00007a46  5525            subq.b  #2,-(a5)
00007a48  4445            neg.w   d5
00007a4a  5524            subq.b  #2,-(a4)
00007a4c  4445            neg.w   d5
00007a4e  5525            subq.b  #2,-(a5)
00007a50  4445            neg.w   d5
00007a52  5512            subq.b  #2,(a2)
00007a54  4445            neg.w   d5
00007a56  5511            subq.b  #2,(a1)
00007a58  4445            neg.w   d5
00007a5a  5512            subq.b  #2,(a2)
00007a5c  4445            neg.w   d5
00007a5e  5511            subq.b  #2,(a1)
00007a60  4445            neg.w   d5
00007a62  5514            subq.b  #2,(a4)
00007a64  4445            neg.w   d5
00007a66  5515            subq.b  #2,(a5)
00007a68  4445            neg.w   d5
00007a6a  5514            subq.b  #2,(a4)
00007a6c  4445            neg.w   d5
00007a6e  5515            subq.b  #2,(a5)
00007a70  4445            neg.w   d5
00007a72  5512            subq.b  #2,(a2)
00007a74  4445            neg.w   d5
00007a76  5511            subq.b  #2,(a1)
00007a78  4445            neg.w   d5
00007a7a  5512            subq.b  #2,(a2)
00007a7c  4445            neg.w   d5
00007a7e  5511            subq.b  #2,(a1)
00007a80  4445            neg.w   d5
00007a82  5514            subq.b  #2,(a4)
00007a84  4445            neg.w   d5
00007a86  5515            subq.b  #2,(a5)
00007a88  4445            neg.w   d5
00007a8a  5514            subq.b  #2,(a4)
00007a8c  4445            neg.w   d5
00007a8e  5515            subq.b  #2,(a5)
00007a90  4445            neg.w   d5
00007a92  552a 4445       subq.b  #2,4445(a2)
00007a96  5529 4445       subq.b  #2,4445(a1)
00007a9a  552a 4445       subq.b  #2,4445(a2)
00007a9e  5529 4445       subq.b  #2,4445(a1)
00007aa2  5524            subq.b  #2,-(a4)
00007aa4  4445            neg.w   d5
00007aa6  5525            subq.b  #2,-(a5)
00007aa8  4445            neg.w   d5
00007aaa  5524            subq.b  #2,-(a4)
00007aac  4445            neg.w   d5
00007aae  5525            subq.b  #2,-(a5)
00007ab0  4445            neg.w   d5
00007ab2  552a 4445       subq.b  #2,4445(a2)
00007ab6  5529 4445       subq.b  #2,4445(a1)
00007aba  552a 4445       subq.b  #2,4445(a2)
00007abe  5529 4445       subq.b  #2,4445(a1)
00007ac2  5524            subq.b  #2,-(a4)
00007ac4  4445            neg.w   d5
00007ac6  5525            subq.b  #2,-(a5)
00007ac8  4445            neg.w   d5
00007aca  5524            subq.b  #2,-(a4)
00007acc  4445            neg.w   d5
00007ace  5525            subq.b  #2,-(a5)
00007ad0  4445            neg.w   d5
00007ad2  5512            subq.b  #2,(a2)
00007ad4  4445            neg.w   d5
00007ad6  5511            subq.b  #2,(a1)
00007ad8  4445            neg.w   d5
00007ada  5512            subq.b  #2,(a2)
00007adc  4445            neg.w   d5
00007ade  5511            subq.b  #2,(a1)
00007ae0  4445            neg.w   d5
00007ae2  5514            subq.b  #2,(a4)
00007ae4  4445            neg.w   d5
00007ae6  5515            subq.b  #2,(a5)
00007ae8  4445            neg.w   d5
00007aea  5514            subq.b  #2,(a4)
00007aec  4445            neg.w   d5
00007aee  5515            subq.b  #2,(a5)
00007af0  4445            neg.w   d5
00007af2  5512            subq.b  #2,(a2)
00007af4  4445            neg.w   d5
00007af6  5511            subq.b  #2,(a1)
00007af8  4445            neg.w   d5
00007afa  5512            subq.b  #2,(a2)
00007afc  4445            neg.w   d5
00007afe  5511            subq.b  #2,(a1)
00007b00  4445            neg.w   d5
00007b02  5514            subq.b  #2,(a4)
00007b04  4445            neg.w   d5
00007b06  5515            subq.b  #2,(a5)
00007b08  4445            neg.w   d5
00007b0a  5514            subq.b  #2,(a4)
00007b0c  4445            neg.w   d5
00007b0e  5515            subq.b  #2,(a5)
00007b10  4445            neg.w   d5
00007b12  554a            subq.w  #2,a2
00007b14  4445            neg.w   d5
00007b16  5549            subq.w  #2,a1
00007b18  4445            neg.w   d5
00007b1a  554a            subq.w  #2,a2
00007b1c  4445            neg.w   d5
00007b1e  5549            subq.w  #2,a1
00007b20  4445            neg.w   d5
00007b22  5544            subq.w  #2,d4
00007b24  4445            neg.w   d5
00007b26  5545            subq.w  #2,d5
00007b28  4445            neg.w   d5
00007b2a  5544            subq.w  #2,d4
00007b2c  4445            neg.w   d5
00007b2e  5545            subq.w  #2,d5
00007b30  4445            neg.w   d5
00007b32  554a            subq.w  #2,a2
00007b34  4445            neg.w   d5
00007b36  5549            subq.w  #2,a1
00007b38  4445            neg.w   d5
00007b3a  554a            subq.w  #2,a2
00007b3c  4445            neg.w   d5
00007b3e  5549            subq.w  #2,a1
00007b40  4445            neg.w   d5
00007b42  5544            subq.w  #2,d4
00007b44  4445            neg.w   d5
00007b46  5545            subq.w  #2,d5
00007b48  4445            neg.w   d5
00007b4a  5544            subq.w  #2,d4
00007b4c  4445            neg.w   d5
00007b4e  5545            subq.w  #2,d5
00007b50  4445            neg.w   d5
00007b52  5552            subq.w  #2,(a2)
00007b54  4445            neg.w   d5
00007b56  5551            subq.w  #2,(a1)
00007b58  4445            neg.w   d5
00007b5a  5552            subq.w  #2,(a2)
00007b5c  4445            neg.w   d5
00007b5e  5551            subq.w  #2,(a1)
00007b60  4445            neg.w   d5
00007b62  5554            subq.w  #2,(a4)
00007b64  4445            neg.w   d5
00007b66  5555            subq.w  #2,(a5)
00007b68  4445            neg.w   d5
00007b6a  5554            subq.w  #2,(a4)
00007b6c  4445            neg.w   d5
00007b6e  5555            subq.w  #2,(a5)
00007b70  4445            neg.w   d5
00007b72  5552            subq.w  #2,(a2)
00007b74  4445            neg.w   d5
00007b76  5551            subq.w  #2,(a1)
00007b78  4445            neg.w   d5
00007b7a  5552            subq.w  #2,(a2)
00007b7c  4445            neg.w   d5
00007b7e  5551            subq.w  #2,(a1)
00007b80  4445            neg.w   d5
00007b82  5554            subq.w  #2,(a4)
00007b84  4445            neg.w   d5
00007b86  5555            subq.w  #2,(a5)
00007b88  4445            neg.w   d5
00007b8a  5554            subq.w  #2,(a4)
00007b8c  4445            neg.w   d5
00007b8e  5555            subq.w  #2,(a5)
00007b90  4445            neg.w   d5
00007b92  554a            subq.w  #2,a2
00007b94  4445            neg.w   d5
00007b96  5549            subq.w  #2,a1
00007b98  4445            neg.w   d5
00007b9a  554a            subq.w  #2,a2
00007b9c  4445            neg.w   d5
00007b9e  5549            subq.w  #2,a1
00007ba0  4445            neg.w   d5
00007ba2  5544            subq.w  #2,d4
00007ba4  4445            neg.w   d5
00007ba6  5545            subq.w  #2,d5
00007ba8  4445            neg.w   d5
00007baa  5544            subq.w  #2,d4
00007bac  4445            neg.w   d5
00007bae  5545            subq.w  #2,d5
00007bb0  4445            neg.w   d5
00007bb2  554a            subq.w  #2,a2
00007bb4  4445            neg.w   d5
00007bb6  5549            subq.w  #2,a1
00007bb8  4445            neg.w   d5
00007bba  554a            subq.w  #2,a2
00007bbc  4445            neg.w   d5
00007bbe  5549            subq.w  #2,a1
00007bc0  4445            neg.w   d5
00007bc2  5544            subq.w  #2,d4
00007bc4  4445            neg.w   d5
00007bc6  5545            subq.w  #2,d5
00007bc8  4445            neg.w   d5
00007bca  5544            subq.w  #2,d4
00007bcc  4445            neg.w   d5
00007bce  5545            subq.w  #2,d5
00007bd0  4445            neg.w   d5
00007bd2  5552            subq.w  #2,(a2)
00007bd4  4445            neg.w   d5
00007bd6  5551            subq.w  #2,(a1)
00007bd8  4445            neg.w   d5
00007bda  5552            subq.w  #2,(a2)
00007bdc  4445            neg.w   d5
00007bde  5551            subq.w  #2,(a1)
00007be0  4445            neg.w   d5
00007be2  5554            subq.w  #2,(a4)
00007be4  4445            neg.w   d5
00007be6  5555            subq.w  #2,(a5)
00007be8  4445            neg.w   d5
00007bea  5554            subq.w  #2,(a4)
00007bec  4445            neg.w   d5
00007bee  5555            subq.w  #2,(a5)
00007bf0  4445            neg.w   d5
00007bf2  5552            subq.w  #2,(a2)
00007bf4  4445            neg.w   d5
00007bf6  5551            subq.w  #2,(a1)
00007bf8  4445            neg.w   d5
00007bfa  5552            subq.w  #2,(a2)
00007bfc  4445            neg.w   d5
00007bfe  5551            subq.w  #2,(a1)
00007c00  4445            neg.w   d5
00007c02  5554            subq.w  #2,(a4)
00007c04  4445            neg.w   d5
00007c06  5555            subq.w  #2,(a5)
00007c08  4445            neg.w   d5
00007c0a  5554            subq.w  #2,(a4)
00007c0c  4445            neg.w   d5
00007c0e  5555            subq.w  #2,(a5)
00007c10  2aaa aaaa       move.l  -5556(a2),(a5)
00007c14  4489            neg.l   a1
00007c16  4489            neg.l   a1
00007c18  552a a4a9       subq.b  #2,-5b57(a2)
00007c1c  552a a925       subq.b  #2,-56db(a2)
00007c20  2aaa aaaa       move.l  -5556(a2),(a5)
00007c24  aaaa            a-line
00007c26  aaaa            a-line
00007c28  aaaa            a-line
00007c2a  aaaa            a-line
00007c2c  aaaa            a-line
00007c2e  aaaa            a-line
00007c30  aaaa            a-line
00007c32  aaaa            a-line
00007c34  aaaa            a-line
00007c36  aaaa            a-line
00007c38  aaaa            a-line
00007c3a  aaaa            a-line
00007c3c  aaaa            a-line
00007c3e  aaaa            a-line
00007c40  aaaa            a-line
00007c42  aaaa            a-line
00007c44  aaaa            a-line
00007c46  a524            a-line
00007c48  aaaa            a-line
00007c4a  aaaa            a-line
00007c4c  aaaa            a-line
00007c4e  aaaa            a-line
00007c50  aaa5            a-line
00007c52  294a aaa5       move.l  a2,-555b(a4)
00007c56  294a aaa5       move.l  a2,-555b(a4)
00007c5a  2949 2aa5       move.l  a1,2aa5(a4)
00007c5e  2949 2aa5       move.l  a1,2aa5(a4)
00007c62  294a aaa5       move.l  a2,-555b(a4)
00007c66  294a aaa5       move.l  a2,-555b(a4)
00007c6a  2949 2aa5       move.l  a1,2aa5(a4)
00007c6e  2949 2aa5       move.l  a1,2aa5(a4)
00007c72  2944 aaa5       move.l  d4,-555b(a4)
00007c76  2944 aaa5       move.l  d4,-555b(a4)
00007c7a  2945 2aa5       move.l  d5,2aa5(a4)
00007c7e  2945 2aa5       move.l  d5,2aa5(a4)
00007c82  2944 aaa5       move.l  d4,-555b(a4)
00007c86  2944 aaa5       move.l  d4,-555b(a4)
00007c8a  2945 2aa5       move.l  d5,2aa5(a4)
00007c8e  2945 2aa5       move.l  d5,2aa5(a4)
00007c92  294a aaa5       move.l  a2,-555b(a4)
00007c96  294a aaa5       move.l  a2,-555b(a4)
00007c9a  2949 2aa5       move.l  a1,2aa5(a4)
00007c9e  2949 2aa5       move.l  a1,2aa5(a4)
00007ca2  294a aaa5       move.l  a2,-555b(a4)
00007ca6  294a aaa5       move.l  a2,-555b(a4)
00007caa  2949 2aa5       move.l  a1,2aa5(a4)
00007cae  2949 2aa5       move.l  a1,2aa5(a4)
00007cb2  2944 aaa5       move.l  d4,-555b(a4)
00007cb6  2944 aaa5       move.l  d4,-555b(a4)
00007cba  2945 2aa5       move.l  d5,2aa5(a4)
00007cbe  2945 2aa5       move.l  d5,2aa5(a4)
00007cc2  2944 aaa5       move.l  d4,-555b(a4)
00007cc6  2944 aaa5       move.l  d4,-555b(a4)
00007cca  2945 2aa5       move.l  d5,2aa5(a4)
00007cce  2945 2aa5       move.l  d5,2aa5(a4)
00007cd2  2952 aaa5       move.l  (a2),-555b(a4)
00007cd6  2952 aaa5       move.l  (a2),-555b(a4)
00007cda  2951 2aa5       move.l  (a1),2aa5(a4)
00007cde  2951 2aa5       move.l  (a1),2aa5(a4)
00007ce2  2952 aaa5       move.l  (a2),-555b(a4)
00007ce6  2952 aaa5       move.l  (a2),-555b(a4)
00007cea  2951 2aa5       move.l  (a1),2aa5(a4)
00007cee  2951 2aa5       move.l  (a1),2aa5(a4)
00007cf2  2954 aaa5       move.l  (a4),-555b(a4)
00007cf6  2954 aaa5       move.l  (a4),-555b(a4)
00007cfa  2955 2aa5       move.l  (a5),2aa5(a4)
00007cfe  2955 2aa5       move.l  (a5),2aa5(a4)
00007d02  2954 aaa5       move.l  (a4),-555b(a4)
00007d06  2954 aaa5       move.l  (a4),-555b(a4)
00007d0a  2955 2aa5       move.l  (a5),2aa5(a4)
00007d0e  2955 2aa5       move.l  (a5),2aa5(a4)
00007d12  2952 aaa5       move.l  (a2),-555b(a4)
00007d16  2952 aaa5       move.l  (a2),-555b(a4)
00007d1a  2951 2aa5       move.l  (a1),2aa5(a4)
00007d1e  2951 2aa5       move.l  (a1),2aa5(a4)
00007d22  2952 aaa5       move.l  (a2),-555b(a4)
00007d26  2952 aaa5       move.l  (a2),-555b(a4)
00007d2a  2951 2aa5       move.l  (a1),2aa5(a4)
00007d2e  2951 2aa5       move.l  (a1),2aa5(a4)
00007d32  2954 aaa5       move.l  (a4),-555b(a4)
00007d36  2954 aaa5       move.l  (a4),-555b(a4)
00007d3a  2955 2aa5       move.l  (a5),2aa5(a4)
00007d3e  2955 2aa5       move.l  (a5),2aa5(a4)
00007d42  2954 aaa5       move.l  (a4),-555b(a4)
00007d46  2954 aaa5       move.l  (a4),-555b(a4)
00007d4a  2955 2aa5       move.l  (a5),2aa5(a4)
00007d4e  2955 2aa5       move.l  (a5),2aa5(a4)
00007d52  294a aaa5       move.l  a2,-555b(a4)
00007d56  294a aaa5       move.l  a2,-555b(a4)
00007d5a  2949 2aa5       move.l  a1,2aa5(a4)
00007d5e  2949 2aa5       move.l  a1,2aa5(a4)
00007d62  294a aaa5       move.l  a2,-555b(a4)
00007d66  294a aaa5       move.l  a2,-555b(a4)
00007d6a  2949 2aa5       move.l  a1,2aa5(a4)
00007d6e  2949 2aa5       move.l  a1,2aa5(a4)
00007d72  2944 aaa5       move.l  d4,-555b(a4)
00007d76  2944 aaa5       move.l  d4,-555b(a4)
00007d7a  2945 2aa5       move.l  d5,2aa5(a4)
00007d7e  2945 2aa5       move.l  d5,2aa5(a4)
00007d82  2944 aaa5       move.l  d4,-555b(a4)
00007d86  2944 aaa5       move.l  d4,-555b(a4)
00007d8a  2945 2aa5       move.l  d5,2aa5(a4)
00007d8e  2945 2aa5       move.l  d5,2aa5(a4)
00007d92  294a aaa5       move.l  a2,-555b(a4)
00007d96  294a aaa5       move.l  a2,-555b(a4)
00007d9a  2949 2aa5       move.l  a1,2aa5(a4)
00007d9e  2949 2aa5       move.l  a1,2aa5(a4)
00007da2  294a aaa5       move.l  a2,-555b(a4)
00007da6  294a aaa5       move.l  a2,-555b(a4)
00007daa  2949 2aa5       move.l  a1,2aa5(a4)
00007dae  2949 2aa5       move.l  a1,2aa5(a4)
00007db2  2944 aaa5       move.l  d4,-555b(a4)
00007db6  2944 aaa5       move.l  d4,-555b(a4)
00007dba  2945 2aa5       move.l  d5,2aa5(a4)
00007dbe  2945 2aa5       move.l  d5,2aa5(a4)
00007dc2  2944 aaa5       move.l  d4,-555b(a4)
00007dc6  2944 aaa5       move.l  d4,-555b(a4)
00007dca  2945 2aa5       move.l  d5,2aa5(a4)
00007dce  2945 2aa5       move.l  d5,2aa5(a4)
00007dd2  2952 aaa5       move.l  (a2),-555b(a4)
00007dd6  2952 aaa5       move.l  (a2),-555b(a4)
00007dda  2951 2aa5       move.l  (a1),2aa5(a4)
00007dde  2951 2aa5       move.l  (a1),2aa5(a4)
00007de2  2952 aaa5       move.l  (a2),-555b(a4)
00007de6  2952 aaa5       move.l  (a2),-555b(a4)
00007dea  2951 2aa5       move.l  (a1),2aa5(a4)
00007dee  2951 2aa5       move.l  (a1),2aa5(a4)
00007df2  2954 aaa5       move.l  (a4),-555b(a4)
00007df6  2954 aaa5       move.l  (a4),-555b(a4)
00007dfa  2955 2aa5       move.l  (a5),2aa5(a4)
00007dfe  2955 2aa5       move.l  (a5),2aa5(a4)
00007e02  2954 aaa5       move.l  (a4),-555b(a4)
00007e06  2954 aaa5       move.l  (a4),-555b(a4)
00007e0a  2955 2aa5       move.l  (a5),2aa5(a4)
00007e0e  2955 2aa5       move.l  (a5),2aa5(a4)
00007e12  2952 aaa5       move.l  (a2),-555b(a4)
00007e16  2952 aaa5       move.l  (a2),-555b(a4)
00007e1a  2951 2aa5       move.l  (a1),2aa5(a4)
00007e1e  2951 2aa5       move.l  (a1),2aa5(a4)
00007e22  2952 aaa5       move.l  (a2),-555b(a4)
00007e26  2952 aaa5       move.l  (a2),-555b(a4)
00007e2a  2951 2aa5       move.l  (a1),2aa5(a4)
00007e2e  2951 2aa5       move.l  (a1),2aa5(a4)
00007e32  2954 aaa5       move.l  (a4),-555b(a4)
00007e36  2954 aaa5       move.l  (a4),-555b(a4)
00007e3a  2955 2aa5       move.l  (a5),2aa5(a4)
00007e3e  2955 2aa5       move.l  (a5),2aa5(a4)
00007e42  2954 aaa5       move.l  (a4),-555b(a4)
00007e46  2954 aaa5       move.l  (a4),-555b(a4)
00007e4a  2955 2aa5       move.l  (a5),2aa5(a4)
00007e4e  2955 4445       move.l  (a5),4445(a4)
00007e52  552a 4445       subq.b  #2,4445(a2)
00007e56  5529 4445       subq.b  #2,4445(a1)
00007e5a  552a 4445       subq.b  #2,4445(a2)
00007e5e  5529 4445       subq.b  #2,4445(a1)
00007e62  5524            subq.b  #2,-(a4)
00007e64  4445            neg.w   d5
00007e66  5525            subq.b  #2,-(a5)
00007e68  4445            neg.w   d5
00007e6a  5524            subq.b  #2,-(a4)
00007e6c  4445            neg.w   d5
00007e6e  5525            subq.b  #2,-(a5)
00007e70  4445            neg.w   d5
00007e72  552a 4445       subq.b  #2,4445(a2)
00007e76  5529 4445       subq.b  #2,4445(a1)
00007e7a  552a 4445       subq.b  #2,4445(a2)
00007e7e  5529 4445       subq.b  #2,4445(a1)
00007e82  5524            subq.b  #2,-(a4)
00007e84  4445            neg.w   d5
00007e86  5525            subq.b  #2,-(a5)
00007e88  4445            neg.w   d5
00007e8a  5524            subq.b  #2,-(a4)
00007e8c  4445            neg.w   d5
00007e8e  5525            subq.b  #2,-(a5)
00007e90  4445            neg.w   d5
00007e92  5512            subq.b  #2,(a2)
00007e94  4445            neg.w   d5
00007e96  5511            subq.b  #2,(a1)
00007e98  4445            neg.w   d5
00007e9a  5512            subq.b  #2,(a2)
00007e9c  4445            neg.w   d5
00007e9e  5511            subq.b  #2,(a1)
00007ea0  4445            neg.w   d5
00007ea2  5514            subq.b  #2,(a4)
00007ea4  4445            neg.w   d5
00007ea6  5515            subq.b  #2,(a5)
00007ea8  4445            neg.w   d5
00007eaa  5514            subq.b  #2,(a4)
00007eac  4445            neg.w   d5
00007eae  5515            subq.b  #2,(a5)
00007eb0  4445            neg.w   d5
00007eb2  5512            subq.b  #2,(a2)
00007eb4  4445            neg.w   d5
00007eb6  5511            subq.b  #2,(a1)
00007eb8  4445            neg.w   d5
00007eba  5512            subq.b  #2,(a2)
00007ebc  4445            neg.w   d5
00007ebe  5511            subq.b  #2,(a1)
00007ec0  4445            neg.w   d5
00007ec2  5514            subq.b  #2,(a4)
00007ec4  4445            neg.w   d5
00007ec6  5515            subq.b  #2,(a5)
00007ec8  4445            neg.w   d5
00007eca  5514            subq.b  #2,(a4)
00007ecc  4445            neg.w   d5
00007ece  5515            subq.b  #2,(a5)
00007ed0  4445            neg.w   d5
00007ed2  552a 4445       subq.b  #2,4445(a2)
00007ed6  5529 4445       subq.b  #2,4445(a1)
00007eda  552a 4445       subq.b  #2,4445(a2)
00007ede  5529 4445       subq.b  #2,4445(a1)
00007ee2  5524            subq.b  #2,-(a4)
00007ee4  4445            neg.w   d5
00007ee6  5525            subq.b  #2,-(a5)
00007ee8  4445            neg.w   d5
00007eea  5524            subq.b  #2,-(a4)
00007eec  4445            neg.w   d5
00007eee  5525            subq.b  #2,-(a5)
00007ef0  4445            neg.w   d5
00007ef2  552a 4445       subq.b  #2,4445(a2)
00007ef6  5529 4445       subq.b  #2,4445(a1)
00007efa  552a 4445       subq.b  #2,4445(a2)
00007efe  5529 4445       subq.b  #2,4445(a1)
00007f02  5524            subq.b  #2,-(a4)
00007f04  4445            neg.w   d5
00007f06  5525            subq.b  #2,-(a5)
00007f08  4445            neg.w   d5
00007f0a  5524            subq.b  #2,-(a4)
00007f0c  4445            neg.w   d5
00007f0e  5525            subq.b  #2,-(a5)
00007f10  4445            neg.w   d5
00007f12  5512            subq.b  #2,(a2)
00007f14  4445            neg.w   d5
00007f16  5511            subq.b  #2,(a1)
00007f18  4445            neg.w   d5
00007f1a  5512            subq.b  #2,(a2)
00007f1c  4445            neg.w   d5
00007f1e  5511            subq.b  #2,(a1)
00007f20  4445            neg.w   d5
00007f22  5514            subq.b  #2,(a4)
00007f24  4445            neg.w   d5
00007f26  5515            subq.b  #2,(a5)
00007f28  4445            neg.w   d5
00007f2a  5514            subq.b  #2,(a4)
00007f2c  4445            neg.w   d5
00007f2e  5515            subq.b  #2,(a5)
00007f30  4445            neg.w   d5
00007f32  5512            subq.b  #2,(a2)
00007f34  4445            neg.w   d5
00007f36  5511            subq.b  #2,(a1)
00007f38  4445            neg.w   d5
00007f3a  5512            subq.b  #2,(a2)
00007f3c  4445            neg.w   d5
00007f3e  5511            subq.b  #2,(a1)
00007f40  4445            neg.w   d5
00007f42  5514            subq.b  #2,(a4)
00007f44  4445            neg.w   d5
00007f46  5515            subq.b  #2,(a5)
00007f48  4445            neg.w   d5
00007f4a  5514            subq.b  #2,(a4)
00007f4c  4445            neg.w   d5
00007f4e  5515            subq.b  #2,(a5)
00007f50  4445            neg.w   d5
00007f52  554a            subq.w  #2,a2
00007f54  4445            neg.w   d5
00007f56  5549            subq.w  #2,a1
00007f58  4445            neg.w   d5
00007f5a  554a            subq.w  #2,a2
00007f5c  4445            neg.w   d5
00007f5e  5549            subq.w  #2,a1
00007f60  4445            neg.w   d5
00007f62  5544            subq.w  #2,d4
00007f64  4445            neg.w   d5
00007f66  5545            subq.w  #2,d5
00007f68  4445            neg.w   d5
00007f6a  5544            subq.w  #2,d4
00007f6c  4445            neg.w   d5
00007f6e  5545            subq.w  #2,d5
00007f70  4445            neg.w   d5
00007f72  554a            subq.w  #2,a2
00007f74  4445            neg.w   d5
00007f76  5549            subq.w  #2,a1
00007f78  4445            neg.w   d5
00007f7a  554a            subq.w  #2,a2
00007f7c  4445            neg.w   d5
00007f7e  5549            subq.w  #2,a1
00007f80  4445            neg.w   d5
00007f82  5544            subq.w  #2,d4
00007f84  4445            neg.w   d5
00007f86  5545            subq.w  #2,d5
00007f88  4445            neg.w   d5
00007f8a  5544            subq.w  #2,d4
00007f8c  4445            neg.w   d5
00007f8e  5545            subq.w  #2,d5
00007f90  4445            neg.w   d5
00007f92  5552            subq.w  #2,(a2)
00007f94  4445            neg.w   d5
00007f96  5551            subq.w  #2,(a1)
00007f98  4445            neg.w   d5
00007f9a  5552            subq.w  #2,(a2)
00007f9c  4445            neg.w   d5
00007f9e  5551            subq.w  #2,(a1)
00007fa0  4445            neg.w   d5
00007fa2  5554            subq.w  #2,(a4)
00007fa4  4445            neg.w   d5
00007fa6  5555            subq.w  #2,(a5)
00007fa8  4445            neg.w   d5
00007faa  5554            subq.w  #2,(a4)
00007fac  4445            neg.w   d5
00007fae  5555            subq.w  #2,(a5)
00007fb0  4445            neg.w   d5
00007fb2  5552            subq.w  #2,(a2)
00007fb4  4445            neg.w   d5
00007fb6  5551            subq.w  #2,(a1)
00007fb8  4445            neg.w   d5
00007fba  5552            subq.w  #2,(a2)
00007fbc  4445            neg.w   d5
00007fbe  5551            subq.w  #2,(a1)
00007fc0  4445            neg.w   d5
00007fc2  5554            subq.w  #2,(a4)
00007fc4  4445            neg.w   d5
00007fc6  5555            subq.w  #2,(a5)
00007fc8  4445            neg.w   d5
00007fca  5554            subq.w  #2,(a4)
00007fcc  4445            neg.w   d5
00007fce  5555            subq.w  #2,(a5)
00007fd0  4445            neg.w   d5
00007fd2  554a            subq.w  #2,a2
00007fd4  4445            neg.w   d5
00007fd6  5549            subq.w  #2,a1
00007fd8  4445            neg.w   d5
00007fda  554a            subq.w  #2,a2
00007fdc  4445            neg.w   d5
00007fde  5549            subq.w  #2,a1
00007fe0  4445            neg.w   d5
00007fe2  5544            subq.w  #2,d4
00007fe4  4445            neg.w   d5
00007fe6  5545            subq.w  #2,d5
00007fe8  4445            neg.w   d5
00007fea  5544            subq.w  #2,d4
00007fec  4445            neg.w   d5
00007fee  5545            subq.w  #2,d5
00007ff0  4445            neg.w   d5
00007ff2  554a            subq.w  #2,a2
00007ff4  4445            neg.w   d5
00007ff6  5549            subq.w  #2,a1
00007ff8  4445            neg.w   d5
00007ffa  554a            subq.w  #2,a2
00007ffc  4445            neg.w   d5
00007ffe  5549            subq.w  #2,a1
00008000  4445            neg.w   d5
00008002  5544            subq.w  #2,d4
00008004  4445            neg.w   d5
00008006  5545            subq.w  #2,d5
00008008  4445            neg.w   d5
0000800a  5544            subq.w  #2,d4
0000800c  4445            neg.w   d5
0000800e  5545            subq.w  #2,d5
00008010  4445            neg.w   d5
00008012  5552            subq.w  #2,(a2)
00008014  4445            neg.w   d5
00008016  5551            subq.w  #2,(a1)
00008018  4445            neg.w   d5
0000801a  5552            subq.w  #2,(a2)
0000801c  4445            neg.w   d5
0000801e  5551            subq.w  #2,(a1)
00008020  4445            neg.w   d5
00008022  5554            subq.w  #2,(a4)
00008024  4445            neg.w   d5
00008026  5555            subq.w  #2,(a5)
00008028  4445            neg.w   d5
0000802a  5554            subq.w  #2,(a4)
0000802c  4445            neg.w   d5
0000802e  5555            subq.w  #2,(a5)
00008030  4445            neg.w   d5
00008032  5552            subq.w  #2,(a2)
00008034  4445            neg.w   d5
00008036  5551            subq.w  #2,(a1)
00008038  4445            neg.w   d5
0000803a  5552            subq.w  #2,(a2)
0000803c  4445            neg.w   d5
0000803e  5551            subq.w  #2,(a1)
00008040  4445            neg.w   d5
00008042  5554            subq.w  #2,(a4)
00008044  4445            neg.w   d5
00008046  5555            subq.w  #2,(a5)
00008048  4445            neg.w   d5
0000804a  5554            subq.w  #2,(a4)
0000804c  4445            neg.w   d5
0000804e  5555            subq.w  #2,(a5)
00008050  2aaa aaaa       move.l  -5556(a2),(a5)
00008054  4489            neg.l   a1
00008056  4489            neg.l   a1
00008058  552a a529       subq.b  #2,-5ad7(a2)
0000805c  552a aaa4       subq.b  #2,-555c(a2)
00008060  aaaa            a-line
00008062  aaaa            a-line
00008064  aaaa            a-line
00008066  aaaa            a-line
00008068  aaaa            a-line
0000806a  aaaa            a-line
0000806c  aaaa            a-line
0000806e  aaaa            a-line
00008070  aaaa            a-line
00008072  aaaa            a-line
00008074  aaaa            a-line
00008076  aaaa            a-line
00008078  aaaa            a-line
0000807a  aaaa            a-line
0000807c  aaaa            a-line
0000807e  aaaa            a-line
00008080  aaaa            a-line
00008082  aaaa            a-line
00008084  aaaa            a-line
00008086  a525            a-line
00008088  2aaa aaaa       move.l  -5556(a2),(a5)
0000808c  aaaa            a-line
0000808e  aaaa            a-line
00008090  aaa5            a-line
00008092  292a aaa5       move.l  -555b(a2),-(a4)
00008096  292a aaa5       move.l  -555b(a2),-(a4)
0000809a  2929 2aa5       move.l  2aa5(a1),-(a4)
0000809e  2929 2aa5       move.l  2aa5(a1),-(a4)
000080a2  292a aaa5       move.l  -555b(a2),-(a4)
000080a6  292a aaa5       move.l  -555b(a2),-(a4)
000080aa  2929 2aa5       move.l  2aa5(a1),-(a4)
000080ae  2929 2aa5       move.l  2aa5(a1),-(a4)
000080b2  2924            move.l  -(a4),-(a4)
000080b4  aaa5            a-line
000080b6  2924            move.l  -(a4),-(a4)
000080b8  aaa5            a-line
000080ba  2925            move.l  -(a5),-(a4)
000080bc  2aa5            move.l  -(a5),(a5)
000080be  2925            move.l  -(a5),-(a4)
000080c0  2aa5            move.l  -(a5),(a5)
000080c2  2924            move.l  -(a4),-(a4)
000080c4  aaa5            a-line
000080c6  2924            move.l  -(a4),-(a4)
000080c8  aaa5            a-line
000080ca  2925            move.l  -(a5),-(a4)
000080cc  2aa5            move.l  -(a5),(a5)
000080ce  2925            move.l  -(a5),-(a4)
000080d0  2aa5            move.l  -(a5),(a5)
000080d2  292a aaa5       move.l  -555b(a2),-(a4)
000080d6  292a aaa5       move.l  -555b(a2),-(a4)
000080da  2929 2aa5       move.l  2aa5(a1),-(a4)
000080de  2929 2aa5       move.l  2aa5(a1),-(a4)
000080e2  292a aaa5       move.l  -555b(a2),-(a4)
000080e6  292a aaa5       move.l  -555b(a2),-(a4)
000080ea  2929 2aa5       move.l  2aa5(a1),-(a4)
000080ee  2929 2aa5       move.l  2aa5(a1),-(a4)
000080f2  2924            move.l  -(a4),-(a4)
000080f4  aaa5            a-line
000080f6  2924            move.l  -(a4),-(a4)
000080f8  aaa5            a-line
000080fa  2925            move.l  -(a5),-(a4)
000080fc  2aa5            move.l  -(a5),(a5)
000080fe  2925            move.l  -(a5),-(a4)
00008100  2aa5            move.l  -(a5),(a5)
00008102  2924            move.l  -(a4),-(a4)
00008104  aaa5            a-line
00008106  2924            move.l  -(a4),-(a4)
00008108  aaa5            a-line
0000810a  2925            move.l  -(a5),-(a4)
0000810c  2aa5            move.l  -(a5),(a5)
0000810e  2925            move.l  -(a5),-(a4)
00008110  2aa5            move.l  -(a5),(a5)
00008112  2912            move.l  (a2),-(a4)
00008114  aaa5            a-line
00008116  2912            move.l  (a2),-(a4)
00008118  aaa5            a-line
0000811a  2911            move.l  (a1),-(a4)
0000811c  2aa5            move.l  -(a5),(a5)
0000811e  2911            move.l  (a1),-(a4)
00008120  2aa5            move.l  -(a5),(a5)
00008122  2912            move.l  (a2),-(a4)
00008124  aaa5            a-line
00008126  2912            move.l  (a2),-(a4)
00008128  aaa5            a-line
0000812a  2911            move.l  (a1),-(a4)
0000812c  2aa5            move.l  -(a5),(a5)
0000812e  2911            move.l  (a1),-(a4)
00008130  2aa5            move.l  -(a5),(a5)
00008132  2914            move.l  (a4),-(a4)
00008134  aaa5            a-line
00008136  2914            move.l  (a4),-(a4)
00008138  aaa5            a-line
0000813a  2915            move.l  (a5),-(a4)
0000813c  2aa5            move.l  -(a5),(a5)
0000813e  2915            move.l  (a5),-(a4)
00008140  2aa5            move.l  -(a5),(a5)
00008142  2914            move.l  (a4),-(a4)
00008144  aaa5            a-line
00008146  2914            move.l  (a4),-(a4)
00008148  aaa5            a-line
0000814a  2915            move.l  (a5),-(a4)
0000814c  2aa5            move.l  -(a5),(a5)
0000814e  2915            move.l  (a5),-(a4)
00008150  2aa5            move.l  -(a5),(a5)
00008152  2912            move.l  (a2),-(a4)
00008154  aaa5            a-line
00008156  2912            move.l  (a2),-(a4)
00008158  aaa5            a-line
0000815a  2911            move.l  (a1),-(a4)
0000815c  2aa5            move.l  -(a5),(a5)
0000815e  2911            move.l  (a1),-(a4)
00008160  2aa5            move.l  -(a5),(a5)
00008162  2912            move.l  (a2),-(a4)
00008164  aaa5            a-line
00008166  2912            move.l  (a2),-(a4)
00008168  aaa5            a-line
0000816a  2911            move.l  (a1),-(a4)
0000816c  2aa5            move.l  -(a5),(a5)
0000816e  2911            move.l  (a1),-(a4)
00008170  2aa5            move.l  -(a5),(a5)
00008172  2914            move.l  (a4),-(a4)
00008174  aaa5            a-line
00008176  2914            move.l  (a4),-(a4)
00008178  aaa5            a-line
0000817a  2915            move.l  (a5),-(a4)
0000817c  2aa5            move.l  -(a5),(a5)
0000817e  2915            move.l  (a5),-(a4)
00008180  2aa5            move.l  -(a5),(a5)
00008182  2914            move.l  (a4),-(a4)
00008184  aaa5            a-line
00008186  2914            move.l  (a4),-(a4)
00008188  aaa5            a-line
0000818a  2915            move.l  (a5),-(a4)
0000818c  2aa5            move.l  -(a5),(a5)
0000818e  2915            move.l  (a5),-(a4)
00008190  2aa5            move.l  -(a5),(a5)
00008192  292a aaa5       move.l  -555b(a2),-(a4)
00008196  292a aaa5       move.l  -555b(a2),-(a4)
0000819a  2929 2aa5       move.l  2aa5(a1),-(a4)
0000819e  2929 2aa5       move.l  2aa5(a1),-(a4)
000081a2  292a aaa5       move.l  -555b(a2),-(a4)
000081a6  292a aaa5       move.l  -555b(a2),-(a4)
000081aa  2929 2aa5       move.l  2aa5(a1),-(a4)
000081ae  2929 2aa5       move.l  2aa5(a1),-(a4)
000081b2  2924            move.l  -(a4),-(a4)
000081b4  aaa5            a-line
000081b6  2924            move.l  -(a4),-(a4)
000081b8  aaa5            a-line
000081ba  2925            move.l  -(a5),-(a4)
000081bc  2aa5            move.l  -(a5),(a5)
000081be  2925            move.l  -(a5),-(a4)
000081c0  2aa5            move.l  -(a5),(a5)
000081c2  2924            move.l  -(a4),-(a4)
000081c4  aaa5            a-line
000081c6  2924            move.l  -(a4),-(a4)
000081c8  aaa5            a-line
000081ca  2925            move.l  -(a5),-(a4)
000081cc  2aa5            move.l  -(a5),(a5)
000081ce  2925            move.l  -(a5),-(a4)
000081d0  2aa5            move.l  -(a5),(a5)
000081d2  292a aaa5       move.l  -555b(a2),-(a4)
000081d6  292a aaa5       move.l  -555b(a2),-(a4)
000081da  2929 2aa5       move.l  2aa5(a1),-(a4)
000081de  2929 2aa5       move.l  2aa5(a1),-(a4)
000081e2  292a aaa5       move.l  -555b(a2),-(a4)
000081e6  292a aaa5       move.l  -555b(a2),-(a4)
000081ea  2929 2aa5       move.l  2aa5(a1),-(a4)
000081ee  2929 2aa5       move.l  2aa5(a1),-(a4)
000081f2  2924            move.l  -(a4),-(a4)
000081f4  aaa5            a-line
000081f6  2924            move.l  -(a4),-(a4)
000081f8  aaa5            a-line
000081fa  2925            move.l  -(a5),-(a4)
000081fc  2aa5            move.l  -(a5),(a5)
000081fe  2925            move.l  -(a5),-(a4)
00008200  2aa5            move.l  -(a5),(a5)
00008202  2924            move.l  -(a4),-(a4)
00008204  aaa5            a-line
00008206  2924            move.l  -(a4),-(a4)
00008208  aaa5            a-line
0000820a  2925            move.l  -(a5),-(a4)
0000820c  2aa5            move.l  -(a5),(a5)
0000820e  2925            move.l  -(a5),-(a4)
00008210  2aa5            move.l  -(a5),(a5)
00008212  2912            move.l  (a2),-(a4)
00008214  aaa5            a-line
00008216  2912            move.l  (a2),-(a4)
00008218  aaa5            a-line
0000821a  2911            move.l  (a1),-(a4)
0000821c  2aa5            move.l  -(a5),(a5)
0000821e  2911            move.l  (a1),-(a4)
00008220  2aa5            move.l  -(a5),(a5)
00008222  2912            move.l  (a2),-(a4)
00008224  aaa5            a-line
00008226  2912            move.l  (a2),-(a4)
00008228  aaa5            a-line
0000822a  2911            move.l  (a1),-(a4)
0000822c  2aa5            move.l  -(a5),(a5)
0000822e  2911            move.l  (a1),-(a4)
00008230  2aa5            move.l  -(a5),(a5)
00008232  2914            move.l  (a4),-(a4)
00008234  aaa5            a-line
00008236  2914            move.l  (a4),-(a4)
00008238  aaa5            a-line
0000823a  2915            move.l  (a5),-(a4)
0000823c  2aa5            move.l  -(a5),(a5)
0000823e  2915            move.l  (a5),-(a4)
00008240  2aa5            move.l  -(a5),(a5)
00008242  2914            move.l  (a4),-(a4)
00008244  aaa5            a-line
00008246  2914            move.l  (a4),-(a4)
00008248  aaa5            a-line
0000824a  2915            move.l  (a5),-(a4)
0000824c  2aa5            move.l  -(a5),(a5)
0000824e  2915            move.l  (a5),-(a4)
00008250  2aa5            move.l  -(a5),(a5)
00008252  2912            move.l  (a2),-(a4)
00008254  aaa5            a-line
00008256  2912            move.l  (a2),-(a4)
00008258  aaa5            a-line
0000825a  2911            move.l  (a1),-(a4)
0000825c  2aa5            move.l  -(a5),(a5)
0000825e  2911            move.l  (a1),-(a4)
00008260  2aa5            move.l  -(a5),(a5)
00008262  2912            move.l  (a2),-(a4)
00008264  aaa5            a-line
00008266  2912            move.l  (a2),-(a4)
00008268  aaa5            a-line
0000826a  2911            move.l  (a1),-(a4)
0000826c  2aa5            move.l  -(a5),(a5)
0000826e  2911            move.l  (a1),-(a4)
00008270  2aa5            move.l  -(a5),(a5)
00008272  2914            move.l  (a4),-(a4)
00008274  aaa5            a-line
00008276  2914            move.l  (a4),-(a4)
00008278  aaa5            a-line
0000827a  2915            move.l  (a5),-(a4)
0000827c  2aa5            move.l  -(a5),(a5)
0000827e  2915            move.l  (a5),-(a4)
00008280  2aa5            move.l  -(a5),(a5)
00008282  2914            move.l  (a4),-(a4)
00008284  aaa5            a-line
00008286  2914            move.l  (a4),-(a4)
00008288  aaa5            a-line
0000828a  2915            move.l  (a5),-(a4)
0000828c  2aa5            move.l  -(a5),(a5)
0000828e  2915            move.l  (a5),-(a4)
00008290  4445            neg.w   d5
00008292  552a 4445       subq.b  #2,4445(a2)
00008296  5529 4445       subq.b  #2,4445(a1)
0000829a  552a 4445       subq.b  #2,4445(a2)
0000829e  5529 4445       subq.b  #2,4445(a1)
000082a2  5524            subq.b  #2,-(a4)
000082a4  4445            neg.w   d5
000082a6  5525            subq.b  #2,-(a5)
000082a8  4445            neg.w   d5
000082aa  5524            subq.b  #2,-(a4)
000082ac  4445            neg.w   d5
000082ae  5525            subq.b  #2,-(a5)
000082b0  4445            neg.w   d5
000082b2  552a 4445       subq.b  #2,4445(a2)
000082b6  5529 4445       subq.b  #2,4445(a1)
000082ba  552a 4445       subq.b  #2,4445(a2)
000082be  5529 4445       subq.b  #2,4445(a1)
000082c2  5524            subq.b  #2,-(a4)
000082c4  4445            neg.w   d5
000082c6  5525            subq.b  #2,-(a5)
000082c8  4445            neg.w   d5
000082ca  5524            subq.b  #2,-(a4)
000082cc  4445            neg.w   d5
000082ce  5525            subq.b  #2,-(a5)
000082d0  4445            neg.w   d5
000082d2  5512            subq.b  #2,(a2)
000082d4  4445            neg.w   d5
000082d6  5511            subq.b  #2,(a1)
000082d8  4445            neg.w   d5
000082da  5512            subq.b  #2,(a2)
000082dc  4445            neg.w   d5
000082de  5511            subq.b  #2,(a1)
000082e0  4445            neg.w   d5
000082e2  5514            subq.b  #2,(a4)
000082e4  4445            neg.w   d5
000082e6  5515            subq.b  #2,(a5)
000082e8  4445            neg.w   d5
000082ea  5514            subq.b  #2,(a4)
000082ec  4445            neg.w   d5
000082ee  5515            subq.b  #2,(a5)
000082f0  4445            neg.w   d5
000082f2  5512            subq.b  #2,(a2)
000082f4  4445            neg.w   d5
000082f6  5511            subq.b  #2,(a1)
000082f8  4445            neg.w   d5
000082fa  5512            subq.b  #2,(a2)
000082fc  4445            neg.w   d5
000082fe  5511            subq.b  #2,(a1)
00008300  4445            neg.w   d5
00008302  5514            subq.b  #2,(a4)
00008304  4445            neg.w   d5
00008306  5515            subq.b  #2,(a5)
00008308  4445            neg.w   d5
0000830a  5514            subq.b  #2,(a4)
0000830c  4445            neg.w   d5
0000830e  5515            subq.b  #2,(a5)
00008310  4445            neg.w   d5
00008312  552a 4445       subq.b  #2,4445(a2)
00008316  5529 4445       subq.b  #2,4445(a1)
0000831a  552a 4445       subq.b  #2,4445(a2)
0000831e  5529 4445       subq.b  #2,4445(a1)
00008322  5524            subq.b  #2,-(a4)
00008324  4445            neg.w   d5
00008326  5525            subq.b  #2,-(a5)
00008328  4445            neg.w   d5
0000832a  5524            subq.b  #2,-(a4)
0000832c  4445            neg.w   d5
0000832e  5525            subq.b  #2,-(a5)
00008330  4445            neg.w   d5
00008332  552a 4445       subq.b  #2,4445(a2)
00008336  5529 4445       subq.b  #2,4445(a1)
0000833a  552a 4445       subq.b  #2,4445(a2)
0000833e  5529 4445       subq.b  #2,4445(a1)
00008342  5524            subq.b  #2,-(a4)
00008344  4445            neg.w   d5
00008346  5525            subq.b  #2,-(a5)
00008348  4445            neg.w   d5
0000834a  5524            subq.b  #2,-(a4)
0000834c  4445            neg.w   d5
0000834e  5525            subq.b  #2,-(a5)
00008350  4445            neg.w   d5
00008352  5512            subq.b  #2,(a2)
00008354  4445            neg.w   d5
00008356  5511            subq.b  #2,(a1)
00008358  4445            neg.w   d5
0000835a  5512            subq.b  #2,(a2)
0000835c  4445            neg.w   d5
0000835e  5511            subq.b  #2,(a1)
00008360  4445            neg.w   d5
00008362  5514            subq.b  #2,(a4)
00008364  4445            neg.w   d5
00008366  5515            subq.b  #2,(a5)
00008368  4445            neg.w   d5
0000836a  5514            subq.b  #2,(a4)
0000836c  4445            neg.w   d5
0000836e  5515            subq.b  #2,(a5)
00008370  4445            neg.w   d5
00008372  5512            subq.b  #2,(a2)
00008374  4445            neg.w   d5
00008376  5511            subq.b  #2,(a1)
00008378  4445            neg.w   d5
0000837a  5512            subq.b  #2,(a2)
0000837c  4445            neg.w   d5
0000837e  5511            subq.b  #2,(a1)
00008380  4445            neg.w   d5
00008382  5514            subq.b  #2,(a4)
00008384  4445            neg.w   d5
00008386  5515            subq.b  #2,(a5)
00008388  4445            neg.w   d5
0000838a  5514            subq.b  #2,(a4)
0000838c  4445            neg.w   d5
0000838e  5515            subq.b  #2,(a5)
00008390  4445            neg.w   d5
00008392  554a            subq.w  #2,a2
00008394  4445            neg.w   d5
00008396  5549            subq.w  #2,a1
00008398  4445            neg.w   d5
0000839a  554a            subq.w  #2,a2
0000839c  4445            neg.w   d5
0000839e  5549            subq.w  #2,a1
000083a0  4445            neg.w   d5
000083a2  5544            subq.w  #2,d4
000083a4  4445            neg.w   d5
000083a6  5545            subq.w  #2,d5
000083a8  4445            neg.w   d5
000083aa  5544            subq.w  #2,d4
000083ac  4445            neg.w   d5
000083ae  5545            subq.w  #2,d5
000083b0  4445            neg.w   d5
000083b2  554a            subq.w  #2,a2
000083b4  4445            neg.w   d5
000083b6  5549            subq.w  #2,a1
000083b8  4445            neg.w   d5
000083ba  554a            subq.w  #2,a2
000083bc  4445            neg.w   d5
000083be  5549            subq.w  #2,a1
000083c0  4445            neg.w   d5
000083c2  5544            subq.w  #2,d4
000083c4  4445            neg.w   d5
000083c6  5545            subq.w  #2,d5
000083c8  4445            neg.w   d5
000083ca  5544            subq.w  #2,d4
000083cc  4445            neg.w   d5
000083ce  5545            subq.w  #2,d5
000083d0  4445            neg.w   d5
000083d2  5552            subq.w  #2,(a2)
000083d4  4445            neg.w   d5
000083d6  5551            subq.w  #2,(a1)
000083d8  4445            neg.w   d5
000083da  5552            subq.w  #2,(a2)
000083dc  4445            neg.w   d5
000083de  5551            subq.w  #2,(a1)
000083e0  4445            neg.w   d5
000083e2  5554            subq.w  #2,(a4)
000083e4  4445            neg.w   d5
000083e6  5555            subq.w  #2,(a5)
000083e8  4445            neg.w   d5
000083ea  5554            subq.w  #2,(a4)
000083ec  4445            neg.w   d5
000083ee  5555            subq.w  #2,(a5)
000083f0  4445            neg.w   d5
000083f2  5552            subq.w  #2,(a2)
000083f4  4445            neg.w   d5
000083f6  5551            subq.w  #2,(a1)
000083f8  4445            neg.w   d5
000083fa  5552            subq.w  #2,(a2)
000083fc  4445            neg.w   d5
000083fe  5551            subq.w  #2,(a1)
00008400  4445            neg.w   d5
00008402  5554            subq.w  #2,(a4)
00008404  4445            neg.w   d5
00008406  5555            subq.w  #2,(a5)
00008408  4445            neg.w   d5
0000840a  5554            subq.w  #2,(a4)
0000840c  4445            neg.w   d5
0000840e  5555            subq.w  #2,(a5)
00008410  4445            neg.w   d5
00008412  554a            subq.w  #2,a2
00008414  4445            neg.w   d5
00008416  5549            subq.w  #2,a1
00008418  4445            neg.w   d5
0000841a  554a            subq.w  #2,a2
0000841c  4445            neg.w   d5
0000841e  5549            subq.w  #2,a1
00008420  4445            neg.w   d5
00008422  5544            subq.w  #2,d4
00008424  4445            neg.w   d5
00008426  5545            subq.w  #2,d5
00008428  4445            neg.w   d5
0000842a  5544            subq.w  #2,d4
0000842c  4445            neg.w   d5
0000842e  5545            subq.w  #2,d5
00008430  4445            neg.w   d5
00008432  554a            subq.w  #2,a2
00008434  4445            neg.w   d5
00008436  5549            subq.w  #2,a1
00008438  4445            neg.w   d5
0000843a  554a            subq.w  #2,a2
0000843c  4445            neg.w   d5
0000843e  5549            subq.w  #2,a1
00008440  4445            neg.w   d5
00008442  5544            subq.w  #2,d4
00008444  4445            neg.w   d5
00008446  5545            subq.w  #2,d5
00008448  4445            neg.w   d5
0000844a  5544            subq.w  #2,d4
0000844c  4445            neg.w   d5
0000844e  5545            subq.w  #2,d5
00008450  4445            neg.w   d5
00008452  5552            subq.w  #2,(a2)
00008454  4445            neg.w   d5
00008456  5551            subq.w  #2,(a1)
00008458  4445            neg.w   d5
0000845a  5552            subq.w  #2,(a2)
0000845c  4445            neg.w   d5
0000845e  5551            subq.w  #2,(a1)
00008460  4445            neg.w   d5
00008462  5554            subq.w  #2,(a4)
00008464  4445            neg.w   d5
00008466  5555            subq.w  #2,(a5)
00008468  4445            neg.w   d5
0000846a  5554            subq.w  #2,(a4)
0000846c  4445            neg.w   d5
0000846e  5555            subq.w  #2,(a5)
00008470  4445            neg.w   d5
00008472  5552            subq.w  #2,(a2)
00008474  4445            neg.w   d5
00008476  5551            subq.w  #2,(a1)
00008478  4445            neg.w   d5
0000847a  5552            subq.w  #2,(a2)
0000847c  4445            neg.w   d5
0000847e  5551            subq.w  #2,(a1)
00008480  4445            neg.w   d5
00008482  5554            subq.w  #2,(a4)
00008484  4445            neg.w   d5
00008486  5555            subq.w  #2,(a5)
00008488  4445            neg.w   d5
0000848a  5554            subq.w  #2,(a4)
0000848c  4445            neg.w   d5
0000848e  5555            subq.w  #2,(a5)
00008490  2aaa aaaa       move.l  -5556(a2),(a5)
00008494  4489            neg.l   a1
00008496  4489            neg.l   a1
00008498  552a aaaa       subq.b  #2,-5556(a2)
0000849c  552a aaa5       subq.b  #2,-555b(a2)
000084a0  2aaa aaaa       move.l  -5556(a2),(a5)
000084a4  aaaa            a-line
000084a6  aaaa            a-line
000084a8  aaaa            a-line
000084aa  aaaa            a-line
000084ac  aaaa            a-line
000084ae  aaaa            a-line
000084b0  aaaa            a-line
000084b2  aaaa            a-line
000084b4  aaaa            a-line
000084b6  aaaa            a-line
000084b8  aaaa            a-line
000084ba  aaaa            a-line
000084bc  aaaa            a-line
000084be  aaaa            a-line
000084c0  aaaa            a-line
000084c2  aaaa            a-line
000084c4  aaaa            a-line
000084c6  aaa5            a-line
000084c8  2aaa aaaa       move.l  -5556(a2),(a5)
000084cc  5291            addq.l  #1,(a1)
000084ce  112a aaa5       move.b  -555b(a2),-(a0)
000084d2  292a 4525       move.l  4525(a2),-(a4)
000084d6  14a9 2aaa       move.b  2aaa(a1),(a2)
000084da  aaaa            a-line
000084dc  a554            a-line
000084de  aaaa            a-line
000084e0  aaaa            a-line
000084e2  a454            a-line
000084e4  aa45            a-line
000084e6  52aa a554       addq.l  #1,-5aac(a2)
000084ea  aa55            a-line
000084ec  52aa a454       addq.l  #1,-5bac(a2)
000084f0  aa55            a-line
000084f2  4aaa 9494       tst.l   -6b6c(a2)
000084f6  9555            sub.w   d2,(a5)
000084f8  2a49            movea.l a1,a5
000084fa  1494            move.b  (a4),(a2)
000084fc  9555            sub.w   d2,(a5)
000084fe  2a45            movea.l d5,a5
00008500  2a55            movea.l (a5),a5
00008502  2aa4            move.l  -(a4),(a5)
00008504  a954            a-line
00008506  aaaa            a-line
00008508  a4aa            a-line
0000850a  9294            sub.l   (a4),d1
0000850c  aa55            a-line
0000850e  1144 aa44       move.b  d4,-55bc(a0)
00008512  5554            subq.w  #2,(a4)
00008514  a554            a-line
00008516  aaaa            a-line
00008518  a4aa            a-line
0000851a  9494            sub.l   (a4),d2
0000851c  aaaa            a-line
0000851e  aa4a            a-line
00008520  9494            sub.l   (a4),d2
00008522  492a aa49       chk.l   -55b7(a2),d4
00008526  2555 2a92       move.l  (a5),2a92(a2)
0000852a  a555            a-line
0000852c  2a45            movea.l d5,a5
0000852e  1115            move.b  (a5),-(a0)
00008530  2555 2925       move.l  (a5),2925(a2)
00008534  2555 2929       move.l  (a5),2929(a2)
00008538  2555 2a45       move.l  (a5),2a45(a2)
0000853c  1555 2a54       move.b  (a5),2a54(a2)
00008540  aaa9            a-line
00008542  4aa9 2954       tst.l   2954(a1)
00008546  aaa9            a-line
00008548  4aaa 9294       tst.l   -6d6c(a2)
0000854c  aa45            a-line
0000854e  1144 aa44       move.b  d4,-55bc(a0)
00008552  5554            subq.w  #2,(a4)
00008554  a554            a-line
00008556  aaa9            a-line
00008558  4aaa a555       tst.l   -5aab(a2)
0000855c  2912            move.l  (a2),-(a4)
0000855e  a555            a-line
00008560  2924            move.l  -(a4),-(a4)
00008562  9494            sub.l   (a4),d2
00008564  aaa5            a-line
00008566  2a4a            movea.l a2,a5
00008568  a555            a-line
0000856a  2a95            move.l  (a5),(a5)
0000856c  1524            move.b  -(a4),-(a2)
0000856e  9494            sub.l   (a4),d2
00008570  a52a            a-line
00008572  aa4a            a-line
00008574  9254            sub.w   (a4),d1
00008576  a555            a-line
00008578  292a 9295       move.l  -6d6b(a2),-(a4)
0000857c  2952 5294       move.l  (a2),5294(a4)
00008580  aa45            a-line
00008582  1145 2555       move.b  d5,2555(a0)
00008586  2929 12aa       move.l  12aa(a1),-(a4)
0000858a  5551            subq.w  #2,(a1)
0000858c  1494            move.b  (a4),(a2)
0000858e  aaaa            a-line
00008590  aa92            a-line
00008592  94aa aa95       sub.l   -556b(a2),d2
00008596  1494            move.b  (a4),(a2)
00008598  952a aa45       sub.b   d2,-55bb(a2)
0000859c  1494            move.b  (a4),(a2)
0000859e  44aa aa45       neg.l   -55bb(a2)
000085a2  2494            move.l  (a4),(a2)
000085a4  aa55            a-line
000085a6  292a a514       move.l  -5aec(a2),-(a4)
000085aa  aaa9            a-line
000085ac  292a a555       move.l  -5aab(a2),-(a4)
000085b0  2924            move.l  -(a4),-(a4)
000085b2  a555            a-line
000085b4  292a 9295       move.l  -6d6b(a2),-(a4)
000085b8  2aa9 1114       move.l  1114(a1),(a5)
000085bc  aa91            a-line
000085be  2929 5295       move.l  5295(a1),-(a4)
000085c2  2aa9 1124       move.l  1124(a1),(a5)
000085c6  aa44            a-line
000085c8  5551            subq.w  #2,(a1)
000085ca  292a a512       move.l  -5aee(a2),-(a4)
000085ce  9294            sub.l   (a4),d1
000085d0  5555            subq.w  #2,(a5)
000085d2  2512            move.l  (a2),-(a2)
000085d4  a454            a-line
000085d6  aa45            a-line
000085d8  52aa 9154       addq.l  #1,-6eac(a2)
000085dc  aaaa            a-line
000085de  aaaa            a-line
000085e0  a94a            a-line
000085e2  9294            sub.l   (a4),d1
000085e4  514a            subq.w  #8,a2
000085e6  a555            a-line
000085e8  2a54            movea.l (a4),a5
000085ea  aa54            a-line
000085ec  aaa9            a-line
000085ee  4552            ???
000085f0  a954            a-line
000085f2  aaa9            a-line
000085f4  2aaa 9294       move.l  -6d6c(a2),(a5)
000085f8  a94a            a-line
000085fa  a555            a-line
000085fc  2914            move.l  (a4),-(a4)
000085fe  aa54            a-line
00008600  aaa9            a-line
00008602  4552            ???
00008604  9114            sub.b   d0,(a4)
00008606  aaa9            a-line
00008608  2555 2aa5       move.l  (a5),2aa5(a2)
0000860c  252a 9512       move.l  -6aee(a2),-(a2)
00008610  a914            a-line
00008612  aaaa            a-line
00008614  a94a            a-line
00008616  952a aa4a       sub.b   d2,-55b6(a2)
0000861a  5114            subq.b  #8,(a4)
0000861c  aaaa            a-line
0000861e  9125            sub.b   d0,-(a5)
00008620  2494            move.l  (a4),(a2)
00008622  aaa9            a-line
00008624  2aaa a94a       move.l  -56b6(a2),(a5)
00008628  9554            sub.w   d2,(a4)
0000862a  a555            a-line
0000862c  2a91            move.l  (a1),(a5)
0000862e  1251            ???
00008630  1154 aaaa       move.b  (a4),-5556(a0)
00008634  aaaa            a-line
00008636  a94a            a-line
00008638  9294            sub.l   (a4),d1
0000863a  454a            ???
0000863c  a555            a-line
0000863e  2a51            movea.l (a1),a5
00008640  2a54            movea.l (a4),a5
00008642  aaa9            a-line
00008644  494a            ???
00008646  a954            a-line
00008648  aaa9            a-line
0000864a  2aaa 9294       move.l  -6d6c(a2),(a5)
0000864e  a94a            a-line
00008650  a555            a-line
00008652  2a51            movea.l (a1),a5
00008654  2a54            movea.l (a4),a5
00008656  aaa9            a-line
00008658  494a            ???
0000865a  9114            sub.b   d0,(a4)
0000865c  aaaa            a-line
0000865e  a555            a-line
00008660  2a52            movea.l (a2),a5
00008662  a52a            a-line
00008664  9525            sub.b   d2,-(a5)
00008666  2914            move.l  (a4),-(a4)
00008668  aaaa            a-line
0000866a  a94a            a-line
0000866c  9515            sub.b   d2,(a5)
0000866e  5114            subq.b  #8,(a4)
00008670  aaaa            a-line
00008672  9125            sub.b   d0,-(a5)
00008674  2494            move.l  (a4),(a2)
00008676  aaa9            a-line
00008678  2aaa a94a       move.l  -56b6(a2),(a5)
0000867c  9555            sub.w   d2,(a5)
0000867e  2555 2a49       move.l  (a5),2a49(a2)
00008682  1252            ???
00008684  9154            sub.w   d0,(a4)
00008686  aaaa            a-line
00008688  aaaa            a-line
0000868a  a94a            a-line
0000868c  9294            sub.l   (a4),d1
0000868e  512a a555       subq.b  #8,-5aab(a2)
00008692  2aa5            move.l  -(a5),(a5)
00008694  2a54            movea.l (a4),a5
00008696  aaa9            a-line
00008698  4aaa a954       tst.l   -56ac(a2)
0000869c  aaa9            a-line
0000869e  2aaa 9294       move.l  -6d6c(a2),(a5)
000086a2  a94a            a-line
000086a4  a555            a-line
000086a6  2a49            movea.l a1,a5
000086a8  2a54            movea.l (a4),a5
000086aa  aaa9            a-line
000086ac  4aaa 9114       tst.l   -6eec(a2)
000086b0  aaaa            a-line
000086b2  a555            a-line
000086b4  2a92            move.l  (a2),(a5)
000086b6  a52a            a-line
000086b8  9525            sub.b   d2,-(a5)
000086ba  2914            move.l  (a4),-(a4)
000086bc  aaaa            a-line
000086be  a94a            a-line
000086c0  9525            sub.b   d2,-(a5)
000086c2  5114            subq.b  #8,(a4)
000086c4  aaaa            a-line
000086c6  9125            sub.b   d0,-(a5)
000086c8  2494            move.l  (a4),(a2)
000086ca  aaa9            a-line
000086cc  2aaa a94a       move.l  -56b6(a2),(a5)
000086d0  4445            neg.w   d5
000086d2  512a a511       subq.b  #8,-5aef(a2)
000086d6  4492            neg.l   (a2)
000086d8  aaaa            a-line
000086da  aaaa            a-line
000086dc  4551            ???
000086de  2aaa a4aa       move.l  -5b56(a2),(a5)
000086e2  4551            ???
000086e4  2a55            movea.l (a5),a5
000086e6  52aa 4951       addq.l  #1,4951(a2)
000086ea  2a95            move.l  (a5),(a5)
000086ec  4aa9 4951       tst.l   4951(a1)
000086f0  2a95            move.l  (a5),(a5)
000086f2  52aa 9554       addq.l  #1,-6aac(a2)
000086f6  5555            subq.w  #2,(a5)
000086f8  2a94            move.l  (a4),(a5)
000086fa  9554            sub.w   d2,(a4)
000086fc  5555            subq.w  #2,(a5)
000086fe  2a92            move.l  (a2),(a5)
00008700  4952            ???
00008702  aa92            a-line
00008704  4951            ???
00008706  2aaa aaaa       move.l  -5556(a2),(a5)
0000870a  9294            sub.l   (a4),d1
0000870c  aa55            a-line
0000870e  2a52            movea.l (a2),a5
00008710  514a            subq.w  #8,a2
00008712  5554            subq.w  #2,(a4)
00008714  4451            neg.w   (a1)
00008716  2aaa aaaa       move.l  -5556(a2),(a5)
0000871a  9554            sub.w   d2,(a4)
0000871c  aaaa            a-line
0000871e  a92a            a-line
00008720  9554            sub.w   d2,(a4)
00008722  aa92            a-line
00008724  aa94            a-line
00008726  4492            neg.l   (a2)
00008728  aa44            a-line
0000872a  4492            neg.l   (a2)
0000872c  aaaa            a-line
0000872e  44aa 4492       neg.l   4492(a2)
00008732  aa4a            a-line
00008734  4492            neg.l   (a2)
00008736  aa44            a-line
00008738  4492            neg.l   (a2)
0000873a  aa92            a-line
0000873c  4954            ???
0000873e  4951            ???
00008740  2aa5            move.l  -(a5),(a5)
00008742  2aa4            move.l  -(a4),(a5)
00008744  4951            ???
00008746  2aa4            move.l  -(a4),(a5)
00008748  aaaa            a-line
0000874a  9294            sub.l   (a4),d1
0000874c  a551            a-line
0000874e  2a52            movea.l (a2),a5
00008750  514a            subq.w  #8,a2
00008752  5554            subq.w  #2,(a4)
00008754  4451            neg.w   (a1)
00008756  2aa4            move.l  -(a4),(a5)
00008758  aaaa            a-line
0000875a  4492            neg.l   (a2)
0000875c  aaaa            a-line
0000875e  4492            neg.l   (a2)
00008760  aa94            a-line
00008762  9554            sub.w   d2,(a4)
00008764  aaa5            a-line
00008766  292a 4492       move.l  4492(a2),-(a4)
0000876a  aa4a            a-line
0000876c  4aaa 9554       tst.l   -6aac(a2)
00008770  a52a            a-line
00008772  a92a            a-line
00008774  4a52            tst.w   (a2)
00008776  4492            neg.l   (a2)
00008778  aaa4            a-line
0000877a  9292            sub.l   (a2),d1
0000877c  aa4a            a-line
0000877e  9254            sub.w   (a4),d1
00008780  aa94            a-line
00008782  4454            neg.w   (a4)
00008784  4492            neg.l   (a2)
00008786  aa4a            a-line
00008788  4aaa 5524       tst.l   5524(a2)
0000878c  9554            sub.w   d2,(a4)
0000878e  4aaa aaa4       tst.l   -555c(a2)
00008792  954a            subx.w  -(a2),-(a2)
00008794  aa54            a-line
00008796  9554            sub.w   d2,(a4)
00008798  552a aa94       subq.b  #2,-556c(a2)
0000879c  9554            sub.w   d2,(a4)
0000879e  952a aa94       sub.b   d2,-556c(a2)
000087a2  9154            sub.w   d0,(a4)
000087a4  aa55            a-line
000087a6  292a 9154       move.l  -6eac(a2),-(a4)
000087aa  aaa9            a-line
000087ac  2aaa 4492       move.l  4492(a2),(a5)
000087b0  aa52            a-line
000087b2  4452            neg.w   (a2)
000087b4  aa94            a-line
000087b6  92a4            sub.l   -(a4),d1
000087b8  aa92            a-line
000087ba  9294            sub.l   (a4),d1
000087bc  aa92            a-line
000087be  524a            addq.w  #1,a2
000087c0  9244            sub.w   d4,d1
000087c2  aa92            a-line
000087c4  44aa 5149       neg.l   5149(a2)
000087c8  5554            subq.w  #2,(a4)
000087ca  4a4a            tst.w   a2
000087cc  4455            neg.w   (a5)
000087ce  1294            move.b  (a4),(a1)
000087d0  5555            subq.w  #2,(a5)
000087d2  4455            neg.w   (a5)
000087d4  4551            ???
000087d6  2a55            movea.l (a5),a5
000087d8  52aa 9154       addq.l  #1,-6eac(a2)
000087dc  aaa5            a-line
000087de  2aaa a92a       move.l  -56d6(a2),(a5)
000087e2  9294            sub.l   (a4),d1
000087e4  aa91            a-line
000087e6  4492            neg.l   (a2)
000087e8  aa52            a-line
000087ea  4951            ???
000087ec  2aa5            move.l  -(a5),(a5)
000087ee  252a 4951       move.l  4951(a2),-(a2)
000087f2  2aa5            move.l  -(a5),(a5)
000087f4  2aaa 9294       move.l  -6d6c(a2),(a5)
000087f8  a555            a-line
000087fa  4492            neg.l   (a2)
000087fc  aa94            a-line
000087fe  4951            ???
00008800  2aa5            move.l  -(a5),(a5)
00008802  252a 9294       move.l  -6d6c(a2),-(a2)
00008806  aaaa            a-line
00008808  4492            neg.l   (a2)
0000880a  a92a            a-line
0000880c  4a49            tst.w   a1
0000880e  492a 5151       chk.l   5151(a2),d4
00008812  2aaa a92a       move.l  -56d6(a2),(a5)
00008816  492a aa44       chk.l   -55bc(a2),d4
0000881a  9254            sub.w   (a4),d1
0000881c  aaa9            a-line
0000881e  44aa a451       neg.l   -5baf(a2)
00008822  2aa9 2aaa       move.l  2aaa(a1),(a5)
00008826  a92a            a-line
00008828  4492            neg.l   (a2)
0000882a  4492            neg.l   (a2)
0000882c  a924            a-line
0000882e  4a92            tst.l   (a2)
00008830  9154            sub.w   d0,(a4)
00008832  aaa5            a-line
00008834  2aaa a92a       move.l  -56d6(a2),(a5)
00008838  9294            sub.l   (a4),d1
0000883a  aa91            a-line
0000883c  4492            neg.l   (a2)
0000883e  aaaa            a-line
00008840  4951            ???
00008842  2aa5            move.l  -(a5),(a5)
00008844  2552 4951       move.l  (a2),4951(a2)
00008848  2aa5            move.l  -(a5),(a5)
0000884a  2aaa 9294       move.l  -6d6c(a2),(a5)
0000884e  a555            a-line
00008850  4492            neg.l   (a2)
00008852  a944            a-line
00008854  4951            ???
00008856  2aa5            move.l  -(a5),(a5)
00008858  2552 9294       move.l  (a2),-6d6c(a2)
0000885c  aaa9            a-line
0000885e  4492            neg.l   (a2)
00008860  aa94            a-line
00008862  4a49            tst.w   a1
00008864  4914            chk.l   (a4),d4
00008866  5151            subq.w  #8,(a1)
00008868  2aaa a92a       move.l  -56d6(a2),(a5)
0000886c  4944            ???
0000886e  9254            sub.w   (a4),d1
00008870  aaa9            a-line
00008872  44aa a451       neg.l   -5baf(a2)
00008876  2aa9 2aaa       move.l  2aaa(a1),(a5)
0000887a  a92a            a-line
0000887c  4492            neg.l   (a2)
0000887e  4492            neg.l   (a2)
00008880  aa52            a-line
00008882  4a94            tst.l   (a4)
00008884  9154            sub.w   d0,(a4)
00008886  aaa5            a-line
00008888  2aaa a92a       move.l  -56d6(a2),(a5)
0000888c  9294            sub.l   (a4),d1
0000888e  aa45            a-line
00008890  4492            neg.l   (a2)
00008892  aa44            a-line
00008894  4951            ???
00008896  2aa5            move.l  -(a5),(a5)
00008898  2aaa 4951       move.l  4951(a2),(a5)
0000889c  2aa5            move.l  -(a5),(a5)
0000889e  2aaa 9294       move.l  -6d6c(a2),(a5)
000088a2  a555            a-line
000088a4  4492            neg.l   (a2)
000088a6  a912            a-line
000088a8  4951            ???
000088aa  2aa5            move.l  -(a5),(a5)
000088ac  2aaa 9294       move.l  -6d6c(a2),(a5)
000088b0  aaaa            a-line
000088b2  4492            neg.l   (a2)
000088b4  aa4a            a-line
000088b6  4a49            tst.w   a1
000088b8  4914            chk.l   (a4),d4
000088ba  5151            subq.w  #8,(a1)
000088bc  2aaa a92a       move.l  -56d6(a2),(a5)
000088c0  4912            chk.l   (a2),d4
000088c2  9254            sub.w   (a4),d1
000088c4  aaa9            a-line
000088c6  44aa a451       neg.l   -5baf(a2)
000088ca  2aa9 2aaa       move.l  2aaa(a1),(a5)
000088ce  a92a            a-line
000088d0  aaaa            a-line
000088d2  aaaa            a-line
000088d4  4489            neg.l   a1
000088d6  4489            neg.l   a1
000088d8  552a aaaa       subq.b  #2,-5556(a2)
000088dc  552a a924       subq.b  #2,-56dc(a2)
000088e0  aaaa            a-line
000088e2  aaaa            a-line
000088e4  aaaa            a-line
000088e6  aaaa            a-line
000088e8  aaaa            a-line
000088ea  aaaa            a-line
000088ec  aaaa            a-line
000088ee  aaaa            a-line
000088f0  aaaa            a-line
000088f2  aaaa            a-line
000088f4  aaaa            a-line
000088f6  aaaa            a-line
000088f8  aaaa            a-line
000088fa  aaaa            a-line
000088fc  aaaa            a-line
000088fe  aaaa            a-line
00008900  aaaa            a-line
00008902  aaaa            a-line
00008904  aaaa            a-line
00008906  a924            a-line
00008908  aaaa            a-line
0000890a  aaaa            a-line
0000890c  5124            subq.b  #8,-(a4)
0000890e  44a5            neg.l   -(a5)
00008910  1555 2555       move.b  (a5),2555(a2)
00008914  2a95            move.l  (a5),(a5)
00008916  1252            ???
00008918  a92a            a-line
0000891a  a512            a-line
0000891c  9255            sub.w   (a5),d1
0000891e  2512            move.l  (a2),-(a2)
00008920  9494            sub.l   (a4),d2
00008922  aaa9            a-line
00008924  2a44            movea.l d4,a5
00008926  9494            sub.l   (a4),d2
00008928  aaa9            a-line
0000892a  2aaa aa92       move.l  -556e(a2),(a5)
0000892e  94aa aa95       sub.l   -556b(a2),d2
00008932  1494            move.b  (a4),(a2)
00008934  952a aa45       sub.b   d2,-55bb(a2)
00008938  1494            move.b  (a4),(a2)
0000893a  44aa aa45       neg.l   -55bb(a2)
0000893e  1494            move.b  (a4),(a2)
00008940  aaaa            a-line
00008942  aa92            a-line
00008944  9494            sub.l   (a4),d2
00008946  4944            ???
00008948  aa92            a-line
0000894a  9494            sub.l   (a4),d2
0000894c  4944            ???
0000894e  aa92            a-line
00008950  a555            a-line
00008952  2aa4            move.l  -(a4),(a5)
00008954  a494            a-line
00008956  aa55            a-line
00008958  2aaa 9115       move.l  -6eeb(a2),(a5)
0000895c  1295            move.b  (a5),(a1)
0000895e  2a95            move.l  (a5),(a5)
00008960  5294            addq.l  #1,(a4)
00008962  aaa9            a-line
00008964  1112            move.b  (a2),-(a0)
00008966  5114            subq.b  #8,(a4)
00008968  aaa9            a-line
0000896a  1125            move.b  -(a5),-(a0)
0000896c  1124            move.b  -(a4),-(a0)
0000896e  aa54            a-line
00008970  aaa9            a-line
00008972  1294            move.b  (a4),(a1)
00008974  a951            a-line
00008976  2555 2aa5       move.l  (a5),2aa5(a2)
0000897a  12a4            move.b  -(a4),(a1)
0000897c  5114            subq.b  #8,(a4)
0000897e  aaaa            a-line
00008980  9124            sub.b   d0,-(a4)
00008982  9155            sub.w   d0,(a5)
00008984  2512            move.l  (a2),-(a2)
00008986  912a a512       sub.b   d0,-5aee(a2)
0000898a  9129 2512       sub.b   d0,2512(a1)
0000898e  9129 2512       sub.b   d0,2512(a1)
00008992  a555            a-line
00008994  2aa5            move.l  -(a5),(a5)
00008996  1555 2aaa       move.b  (a5),2aaa(a2)
0000899a  a555            a-line
0000899c  2a94            move.l  (a4),(a5)
0000899e  92aa a555       sub.l   -5aab(a2),d1
000089a2  2aa5            move.l  -(a5),(a5)
000089a4  2a44            movea.l d4,a5
000089a6  5555            subq.w  #2,(a5)
000089a8  2512            move.l  (a2),-(a2)
000089aa  9295            sub.l   (a5),d1
000089ac  2aa5            move.l  -(a5),(a5)
000089ae  292a aaa9       move.l  -5557(a2),-(a4)
000089b2  1151 1494       move.b  (a1),1494(a0)
000089b6  aaa9            a-line
000089b8  2a44            movea.l d4,a5
000089ba  a512            a-line
000089bc  a955            a-line
000089be  2a45            movea.l d5,a5
000089c0  2454            movea.l (a4),a2
000089c2  aaaa            a-line
000089c4  aaaa            a-line
000089c6  92a9 292a       sub.l   292a(a1),d1
000089ca  a4aa            a-line
000089cc  aa52            a-line
000089ce  9111            sub.b   d0,(a1)
000089d0  114a a454       move.b  a2,-5bac(a0)
000089d4  aaa9            a-line
000089d6  2aaa 5124       move.l  5124(a2),(a5)
000089da  92a4            sub.l   -(a4),d1
000089dc  a454            a-line
000089de  aaa9            a-line
000089e0  2aaa 9291       move.l  -6d6f(a2),(a5)
000089e4  2454            movea.l (a4),a2
000089e6  aaaa            a-line
000089e8  aaaa            a-line
000089ea  a454            a-line
000089ec  aaaa            a-line
000089ee  aaaa            a-line
000089f0  a512            a-line
000089f2  a512            a-line
000089f4  a512            a-line
000089f6  a512            a-line
000089f8  a454            a-line
000089fa  aaaa            a-line
000089fc  aaaa            a-line
000089fe  9294            sub.l   (a4),d1
00008a00  a52a            a-line
00008a02  aa44            a-line
00008a04  5555            subq.w  #2,(a5)
00008a06  2512            move.l  (a2),-(a2)
00008a08  a454            a-line
00008a0a  aaaa            a-line
00008a0c  aaaa            a-line
00008a0e  a494            a-line
00008a10  aaaa            a-line
00008a12  aaaa            a-line
00008a14  9112            sub.b   d0,(a2)
00008a16  a454            a-line
00008a18  aaaa            a-line
00008a1a  aaaa            a-line
00008a1c  a454            a-line
00008a1e  aaaa            a-line
00008a20  aaaa            a-line
00008a22  a512            a-line
00008a24  a512            a-line
00008a26  a512            a-line
00008a28  a512            a-line
00008a2a  a454            a-line
00008a2c  aaaa            a-line
00008a2e  aaaa            a-line
00008a30  9294            sub.l   (a4),d1
00008a32  a52a            a-line
00008a34  aa44            a-line
00008a36  5555            subq.w  #2,(a5)
00008a38  124a            ???
00008a3a  a955            a-line
00008a3c  2a92            move.l  (a2),(a5)
00008a3e  a929            a-line
00008a40  2454            movea.l (a4),a2
00008a42  aaa9            a-line
00008a44  2aaa a512       move.l  -5aee(a2),(a5)
00008a48  a454            a-line
00008a4a  aaa9            a-line
00008a4c  2aaa a454       move.l  -5bac(a2),(a5)
00008a50  aaa9            a-line
00008a52  2aaa a454       move.l  -5bac(a2),(a5)
00008a56  aaa9            a-line
00008a58  2aaa 92aa       move.l  -6d56(a2),(a5)
00008a5c  a555            a-line
00008a5e  2aa4            move.l  -(a4),(a5)
00008a60  aa44            a-line
00008a62  5555            subq.w  #2,(a5)
00008a64  2512            move.l  (a2),-(a2)
00008a66  a494            a-line
00008a68  aaaa            a-line
00008a6a  a4aa            a-line
00008a6c  9154            sub.w   d0,(a4)
00008a6e  a494            a-line
00008a70  aaaa            a-line
00008a72  a4aa            a-line
00008a74  9154            sub.w   d0,(a4)
00008a76  a512            a-line
00008a78  912a 92a9       sub.b   d0,-6d57(a2)
00008a7c  1124            move.b  -(a4),-(a0)
00008a7e  5125            subq.b  #8,-(a5)
00008a80  5145            subq.w  #8,d5
00008a82  2a45            movea.l d5,a5
00008a84  5555            subq.w  #2,(a5)
00008a86  24a9 2a49       move.l  2a49(a1),(a2)
00008a8a  2a44            movea.l d4,a5
00008a8c  5554            subq.w  #2,(a4)
00008a8e  a512            a-line
00008a90  aaaa            a-line
00008a92  912a 4924       sub.b   d0,4924(a2)
00008a96  aa44            a-line
00008a98  5554            subq.w  #2,(a4)
00008a9a  a512            a-line
00008a9c  aaaa            a-line
00008a9e  aaaa            a-line
00008aa0  aaaa            a-line
00008aa2  a954            a-line
00008aa4  aaaa            a-line
00008aa6  aaa4            a-line
00008aa8  aaaa            a-line
00008aaa  aaaa            a-line
00008aac  aaaa            a-line
00008aae  aaa5            a-line
00008ab0  2aaa aaa9       move.l  -5557(a2),(a5)
00008ab4  2aaa aaaa       move.l  -5556(a2),(a5)
00008ab8  aaaa            a-line
00008aba  aa92            a-line
00008abc  aaaa            a-line
00008abe  aa44            a-line
00008ac0  aaaa            a-line
00008ac2  aa54            a-line
00008ac4  aaaa            a-line
00008ac6  aa54            a-line
00008ac8  aaaa            a-line
00008aca  aa54            a-line
00008acc  aaaa            a-line
00008ace  aa54            a-line
00008ad0  aaaa            a-line
00008ad2  aaaa            a-line
00008ad4  aaaa            a-line
00008ad6  a951            a-line
00008ad8  2aaa aaaa       move.l  -5556(a2),(a5)
00008adc  aaaa            a-line
00008ade  aaaa            a-line
00008ae0  aaaa            a-line
00008ae2  aaaa            a-line
00008ae4  aaaa            a-line
00008ae6  aaaa            a-line
00008ae8  aaaa            a-line
00008aea  aaaa            a-line
00008aec  aaaa            a-line
00008aee  aaaa            a-line
00008af0  aaaa            a-line
00008af2  aaaa            a-line
00008af4  aaaa            a-line
00008af6  aaaa            a-line
00008af8  aaaa            a-line
00008afa  aaaa            a-line
00008afc  aaaa            a-line
00008afe  aaaa            a-line
00008b00  aaaa            a-line
00008b02  aaaa            a-line
00008b04  aaaa            a-line
00008b06  aaaa            a-line
00008b08  aaaa            a-line
00008b0a  aaaa            a-line
00008b0c  aaaa            a-line
00008b0e  aaaa            a-line
00008b10  4492            neg.l   (a2)
00008b12  4492            neg.l   (a2)
00008b14  aa54            a-line
00008b16  4a94            tst.l   (a4)
00008b18  4a4a            tst.w   a2
00008b1a  4455            neg.w   (a5)
00008b1c  5255            addq.w  #1,(a5)
00008b1e  4455            neg.w   (a5)
00008b20  1554 aaaa       move.b  (a4),-5556(a2)
00008b24  aa94            a-line
00008b26  a554            a-line
00008b28  aaa5            a-line
00008b2a  2aaa aaaa       move.l  -5556(a2),(a5)
00008b2e  954a            subx.w  -(a2),-(a2)
00008b30  aa54            a-line
00008b32  9554            sub.w   d2,(a4)
00008b34  552a aa94       subq.b  #2,-556c(a2)
00008b38  9554            sub.w   d2,(a4)
00008b3a  952a aa94       sub.b   d2,-556c(a2)
00008b3e  9554            sub.w   d2,(a4)
00008b40  4aaa aaa4       tst.l   -555c(a2)
00008b44  9554            sub.w   d2,(a4)
00008b46  a552            a-line
00008b48  aaa4            a-line
00008b4a  9554            sub.w   d2,(a4)
00008b4c  a552            a-line
00008b4e  aaa4            a-line
00008b50  4452            neg.w   (a2)
00008b52  aa52            a-line
00008b54  a4aa            a-line
00008b56  aa55            a-line
00008b58  2aa9 44aa       move.l  44aa(a1),(a5)
00008b5c  9292            sub.l   (a2),d1
00008b5e  a914            a-line
00008b60  92aa aaaa       sub.l   -5556(a2),d1
00008b64  44a4            neg.l   -(a4)
00008b66  92aa aaa9       sub.l   -5557(a2),d1
00008b6a  4494            neg.l   (a4)
00008b6c  aa4a            a-line
00008b6e  4949            ???
00008b70  2aa4            move.l  -(a4),(a5)
00008b72  9294            sub.l   (a4),d1
00008b74  a945            a-line
00008b76  4492            neg.l   (a2)
00008b78  a912            a-line
00008b7a  aa49            a-line
00008b7c  124a            ???
00008b7e  aaa4            a-line
00008b80  44a4            neg.l   -(a4)
00008b82  5255            addq.w  #1,(a5)
00008b84  4455            neg.w   (a5)
00008b86  52a9 4455       addq.l  #1,4455(a1)
00008b8a  52aa 4455       addq.l  #1,4455(a2)
00008b8e  52a9 4455       addq.l  #1,4455(a1)
00008b92  4952            ???
00008b94  a92a            a-line
00008b96  9292            sub.l   (a2),d1
00008b98  a924            a-line
00008b9a  4492            neg.l   (a2)
00008b9c  aa44            a-line
00008b9e  9295            sub.l   (a5),d1
00008ba0  4492            neg.l   (a2)
00008ba2  aa92            a-line
00008ba4  514a            subq.w  #8,a2
00008ba6  5552            subq.w  #2,(a2)
00008ba8  4455            neg.w   (a5)
00008baa  12a4            move.b  -(a4),(a1)
00008bac  aa94            a-line
00008bae  aa4a            a-line
00008bb0  aaaa            a-line
00008bb2  4554            ???
00008bb4  9554            sub.w   d2,(a4)
00008bb6  aaaa            a-line
00008bb8  aa94            a-line
00008bba  4455            neg.w   (a5)
00008bbc  4552            ???
00008bbe  aa54            a-line
00008bc0  aaa4            a-line
00008bc2  aaa9            a-line
00008bc4  292a 9291       move.l  -6d6f(a2),-(a4)
00008bc8  524a            addq.w  #1,a2
00008bca  a44a            a-line
00008bcc  aaaa            a-line
00008bce  4514            chk.l   (a4),d2
00008bd0  94aa aaa4       sub.l   -555c(a2),d2
00008bd4  aaaa            a-line
00008bd6  a92a            a-line
00008bd8  4a4a            tst.w   a2
00008bda  44aa aa44       neg.l   -55bc(a2)
00008bde  aaaa            a-line
00008be0  a92a            a-line
00008be2  4aaa aa44       tst.l   -55bc(a2)
00008be6  aaaa            a-line
00008be8  a92a            a-line
00008bea  aaa4            a-line
00008bec  aaaa            a-line
00008bee  a92a            a-line
00008bf0  4451            neg.w   (a1)
00008bf2  4451            neg.w   (a1)
00008bf4  4451            neg.w   (a1)
00008bf6  4451            neg.w   (a1)
00008bf8  2a44            movea.l d4,a5
00008bfa  aaaa            a-line
00008bfc  a92a            a-line
00008bfe  9294            sub.l   (a4),d1
00008c00  954a            subx.w  -(a2),-(a2)
00008c02  514a            subq.w  #8,a2
00008c04  5554            subq.w  #2,(a4)
00008c06  4455            neg.w   (a5)
00008c08  2a44            movea.l d4,a5
00008c0a  aaa9            a-line
00008c0c  292a aaa5       move.l  -555b(a2),-(a4)
00008c10  2aa4            move.l  -(a4),(a5)
00008c12  aaaa            a-line
00008c14  4524            chk.l   -(a4),d2
00008c16  aa44            a-line
00008c18  aaaa            a-line
00008c1a  a92a            a-line
00008c1c  aaa4            a-line
00008c1e  aaaa            a-line
00008c20  a92a            a-line
00008c22  4451            neg.w   (a1)
00008c24  4451            neg.w   (a1)
00008c26  4451            neg.w   (a1)
00008c28  4451            neg.w   (a1)
00008c2a  2a44            movea.l d4,a5
00008c2c  aaaa            a-line
00008c2e  a92a            a-line
00008c30  9294            sub.l   (a4),d1
00008c32  954a            subx.w  -(a2),-(a2)
00008c34  514a            subq.w  #8,a2
00008c36  5554            subq.w  #2,(a4)
00008c38  4a54            tst.w   (a4)
00008c3a  4552            ???
00008c3c  aa4a            a-line
00008c3e  4a51            tst.w   (a1)
00008c40  2aa4            move.l  -(a4),(a5)
00008c42  aaaa            a-line
00008c44  a92a            a-line
00008c46  4455            neg.w   (a5)
00008c48  2a44            movea.l d4,a5
00008c4a  aaa9            a-line
00008c4c  292a aaa4       move.l  -555c(a2),-(a4)
00008c50  aaa5            a-line
00008c52  292a aaa4       move.l  -555c(a2),-(a4)
00008c56  aaa9            a-line
00008c58  292a 52a4       move.l  52a4(a2),-(a4)
00008c5c  4492            neg.l   (a2)
00008c5e  aaaa            a-line
00008c60  514a            subq.w  #8,a2
00008c62  5552            subq.w  #2,(a2)
00008c64  4455            neg.w   (a5)
00008c66  2aa4            move.l  -(a4),(a5)
00008c68  aaa4            a-line
00008c6a  a52a            a-line
00008c6c  4452            neg.w   (a2)
00008c6e  aaa4            a-line
00008c70  aaa4            a-line
00008c72  a52a            a-line
00008c74  4552            ???
00008c76  4455            neg.w   (a5)
00008c78  52aa 54a5       addq.l  #1,54a5(a2)
00008c7c  1491            move.b  (a1),(a2)
00008c7e  4949            ???
00008c80  4929 514a       chk.l   514a(a1),d4
00008c84  5552            subq.w  #2,(a2)
00008c86  4a49            tst.w   a1
00008c88  1249            ???
00008c8a  514a            subq.w  #8,a2
00008c8c  5544            subq.w  #2,d4
00008c8e  4455            neg.w   (a5)
00008c90  2aa9 52aa       move.l  52aa(a1),(a5)
00008c94  5252            addq.w  #1,(a2)
00008c96  514a            subq.w  #8,a2
00008c98  5554            subq.w  #2,(a4)
00008c9a  4455            neg.w   (a5)
00008c9c  2aaa aaaa       move.l  -5556(a2),(a5)
00008ca0  aaaa            a-line
00008ca2  a944            a-line
00008ca4  aaaa            a-line
00008ca6  aaa9            a-line
00008ca8  2aaa aaaa       move.l  -5556(a2),(a5)
00008cac  aaaa            a-line
00008cae  a924            a-line
00008cb0  aaaa            a-line
00008cb2  a94a            a-line
00008cb4  aaaa            a-line
00008cb6  a954            a-line
00008cb8  aaaa            a-line
00008cba  a944            a-line
00008cbc  aaaa            a-line
00008cbe  a912            a-line
00008cc0  aaaa            a-line
00008cc2  a92a            a-line
00008cc4  aaaa            a-line
00008cc6  a912            a-line
00008cc8  aaaa            a-line
00008cca  a944            a-line
00008ccc  aaaa            a-line
00008cce  a954            a-line
00008cd0  aaaa            a-line
00008cd2  aaaa            a-line
00008cd4  aaaa            a-line
00008cd6  a952            a-line
00008cd8  aaaa            a-line
00008cda  aaaa            a-line
00008cdc  aaaa            a-line
00008cde  aaaa            a-line
00008ce0  aaaa            a-line
00008ce2  aaaa            a-line
00008ce4  aaaa            a-line
00008ce6  aaaa            a-line
00008ce8  aaaa            a-line
00008cea  aaaa            a-line
00008cec  aaaa            a-line
00008cee  aaaa            a-line
00008cf0  aaaa            a-line
00008cf2  aaaa            a-line
00008cf4  aaaa            a-line
00008cf6  aaaa            a-line
00008cf8  aaaa            a-line
00008cfa  aaaa            a-line
00008cfc  aaaa            a-line
00008cfe  aaaa            a-line
00008d00  aaaa            a-line
00008d02  aaaa            a-line
00008d04  aaaa            a-line
00008d06  aaaa            a-line
00008d08  aaaa            a-line
00008d0a  aaaa            a-line
00008d0c  aaaa            a-line
00008d0e  aaaa            a-line
00008d10  aaaa            a-line
00008d12  aaaa            a-line
00008d14  4489            neg.l   a1
00008d16  4489            neg.l   a1
00008d18  552a a929       subq.b  #2,-56d7(a2)
00008d1c  552a aaa9       subq.b  #2,-5557(a2)
00008d20  2aaa aaaa       move.l  -5556(a2),(a5)
00008d24  aaaa            a-line
00008d26  aaaa            a-line
00008d28  aaaa            a-line
00008d2a  aaaa            a-line
00008d2c  aaaa            a-line
00008d2e  aaaa            a-line
00008d30  aaaa            a-line
00008d32  aaaa            a-line
00008d34  aaaa            a-line
00008d36  aaaa            a-line
00008d38  aaaa            a-line
00008d3a  aaaa            a-line
00008d3c  aaaa            a-line
00008d3e  aaaa            a-line
00008d40  aaaa            a-line
00008d42  aaaa            a-line
00008d44  aaaa            a-line
00008d46  a92a            a-line
00008d48  aaaa            a-line
00008d4a  aaaa            a-line
00008d4c  aaaa            a-line
00008d4e  aaaa            a-line
00008d50  aaa5            a-line
00008d52  292a aaa5       move.l  -555b(a2),-(a4)
00008d56  292a aaa5       move.l  -555b(a2),-(a4)
00008d5a  2929 2aa5       move.l  2aa5(a1),-(a4)
00008d5e  2929 2aa5       move.l  2aa5(a1),-(a4)
00008d62  292a aaa5       move.l  -555b(a2),-(a4)
00008d66  292a aaa5       move.l  -555b(a2),-(a4)
00008d6a  2929 2aa5       move.l  2aa5(a1),-(a4)
00008d6e  2929 2aa5       move.l  2aa5(a1),-(a4)
00008d72  2924            move.l  -(a4),-(a4)
00008d74  aaa5            a-line
00008d76  2924            move.l  -(a4),-(a4)
00008d78  aaa5            a-line
00008d7a  2925            move.l  -(a5),-(a4)
00008d7c  2aa5            move.l  -(a5),(a5)
00008d7e  2925            move.l  -(a5),-(a4)
00008d80  2aa5            move.l  -(a5),(a5)
00008d82  2924            move.l  -(a4),-(a4)
00008d84  aaa5            a-line
00008d86  2924            move.l  -(a4),-(a4)
00008d88  aaa5            a-line
00008d8a  2925            move.l  -(a5),-(a4)
00008d8c  2aa5            move.l  -(a5),(a5)
00008d8e  2925            move.l  -(a5),-(a4)
00008d90  2aa5            move.l  -(a5),(a5)
00008d92  292a aaa5       move.l  -555b(a2),-(a4)
00008d96  292a aaa5       move.l  -555b(a2),-(a4)
00008d9a  2929 2aa5       move.l  2aa5(a1),-(a4)
00008d9e  2929 2aa5       move.l  2aa5(a1),-(a4)
00008da2  292a aaa5       move.l  -555b(a2),-(a4)
00008da6  292a aaa5       move.l  -555b(a2),-(a4)
00008daa  2929 2aa5       move.l  2aa5(a1),-(a4)
00008dae  2929 2aa5       move.l  2aa5(a1),-(a4)
00008db2  2924            move.l  -(a4),-(a4)
00008db4  aaa5            a-line
00008db6  2924            move.l  -(a4),-(a4)
00008db8  aaa5            a-line
00008dba  2925            move.l  -(a5),-(a4)
00008dbc  2aa5            move.l  -(a5),(a5)
00008dbe  2925            move.l  -(a5),-(a4)
00008dc0  2aa5            move.l  -(a5),(a5)
00008dc2  2924            move.l  -(a4),-(a4)
00008dc4  aaa5            a-line
00008dc6  2924            move.l  -(a4),-(a4)
00008dc8  aaa5            a-line
00008dca  2925            move.l  -(a5),-(a4)
00008dcc  2aa5            move.l  -(a5),(a5)
00008dce  2925            move.l  -(a5),-(a4)
00008dd0  2aa5            move.l  -(a5),(a5)
00008dd2  2912            move.l  (a2),-(a4)
00008dd4  aaa5            a-line
00008dd6  2912            move.l  (a2),-(a4)
00008dd8  aaa5            a-line
00008dda  2911            move.l  (a1),-(a4)
00008ddc  2aa5            move.l  -(a5),(a5)
00008dde  2911            move.l  (a1),-(a4)
00008de0  2aa5            move.l  -(a5),(a5)
00008de2  2912            move.l  (a2),-(a4)
00008de4  aaa5            a-line
00008de6  2912            move.l  (a2),-(a4)
00008de8  aaa5            a-line
00008dea  2911            move.l  (a1),-(a4)
00008dec  2aa5            move.l  -(a5),(a5)
00008dee  2911            move.l  (a1),-(a4)
00008df0  2aa5            move.l  -(a5),(a5)
00008df2  2914            move.l  (a4),-(a4)
00008df4  aaa5            a-line
00008df6  2914            move.l  (a4),-(a4)
00008df8  aaa5            a-line
00008dfa  2915            move.l  (a5),-(a4)
00008dfc  2aa5            move.l  -(a5),(a5)
00008dfe  2915            move.l  (a5),-(a4)
00008e00  2aa5            move.l  -(a5),(a5)
00008e02  2914            move.l  (a4),-(a4)
00008e04  aaa5            a-line
00008e06  2914            move.l  (a4),-(a4)
00008e08  aaa5            a-line
00008e0a  2915            move.l  (a5),-(a4)
00008e0c  2aa5            move.l  -(a5),(a5)
00008e0e  2915            move.l  (a5),-(a4)
00008e10  2aa5            move.l  -(a5),(a5)
00008e12  2912            move.l  (a2),-(a4)
00008e14  aaa5            a-line
00008e16  2912            move.l  (a2),-(a4)
00008e18  aaa5            a-line
00008e1a  2911            move.l  (a1),-(a4)
00008e1c  2aa5            move.l  -(a5),(a5)
00008e1e  2911            move.l  (a1),-(a4)
00008e20  2aa5            move.l  -(a5),(a5)
00008e22  2912            move.l  (a2),-(a4)
00008e24  aaa5            a-line
00008e26  2912            move.l  (a2),-(a4)
00008e28  aaa5            a-line
00008e2a  2911            move.l  (a1),-(a4)
00008e2c  2aa5            move.l  -(a5),(a5)
00008e2e  2911            move.l  (a1),-(a4)
00008e30  2aa5            move.l  -(a5),(a5)
00008e32  2914            move.l  (a4),-(a4)
00008e34  aaa5            a-line
00008e36  2914            move.l  (a4),-(a4)
00008e38  aaa5            a-line
00008e3a  2915            move.l  (a5),-(a4)
00008e3c  2aa5            move.l  -(a5),(a5)
00008e3e  2915            move.l  (a5),-(a4)
00008e40  2aa5            move.l  -(a5),(a5)
00008e42  2914            move.l  (a4),-(a4)
00008e44  aaa5            a-line
00008e46  2914            move.l  (a4),-(a4)
00008e48  aaa5            a-line
00008e4a  2915            move.l  (a5),-(a4)
00008e4c  2aa5            move.l  -(a5),(a5)
00008e4e  2915            move.l  (a5),-(a4)
00008e50  2aa5            move.l  -(a5),(a5)
00008e52  292a aaa5       move.l  -555b(a2),-(a4)
00008e56  292a aaa5       move.l  -555b(a2),-(a4)
00008e5a  2929 2aa5       move.l  2aa5(a1),-(a4)
00008e5e  2929 2aa5       move.l  2aa5(a1),-(a4)
00008e62  292a aaa5       move.l  -555b(a2),-(a4)
00008e66  292a aaa5       move.l  -555b(a2),-(a4)
00008e6a  2929 2aa5       move.l  2aa5(a1),-(a4)
00008e6e  2929 2aa5       move.l  2aa5(a1),-(a4)
00008e72  2924            move.l  -(a4),-(a4)
00008e74  aaa5            a-line
00008e76  2924            move.l  -(a4),-(a4)
00008e78  aaa5            a-line
00008e7a  2925            move.l  -(a5),-(a4)
00008e7c  2aa5            move.l  -(a5),(a5)
00008e7e  2925            move.l  -(a5),-(a4)
00008e80  2aa5            move.l  -(a5),(a5)
00008e82  2924            move.l  -(a4),-(a4)
00008e84  aaa5            a-line
00008e86  2924            move.l  -(a4),-(a4)
00008e88  aaa5            a-line
00008e8a  2925            move.l  -(a5),-(a4)
00008e8c  2aa5            move.l  -(a5),(a5)
00008e8e  2925            move.l  -(a5),-(a4)
00008e90  2aa5            move.l  -(a5),(a5)
00008e92  292a aaa5       move.l  -555b(a2),-(a4)
00008e96  292a aaa5       move.l  -555b(a2),-(a4)
00008e9a  2929 2aa5       move.l  2aa5(a1),-(a4)
00008e9e  2929 2aa5       move.l  2aa5(a1),-(a4)
00008ea2  292a aaa5       move.l  -555b(a2),-(a4)
00008ea6  292a aaa5       move.l  -555b(a2),-(a4)
00008eaa  2929 2aa5       move.l  2aa5(a1),-(a4)
00008eae  2929 2aa5       move.l  2aa5(a1),-(a4)
00008eb2  2924            move.l  -(a4),-(a4)
00008eb4  aaa5            a-line
00008eb6  2924            move.l  -(a4),-(a4)
00008eb8  aaa5            a-line
00008eba  2925            move.l  -(a5),-(a4)
00008ebc  2aa5            move.l  -(a5),(a5)
00008ebe  2925            move.l  -(a5),-(a4)
00008ec0  2aa5            move.l  -(a5),(a5)
00008ec2  2924            move.l  -(a4),-(a4)
00008ec4  aaa5            a-line
00008ec6  2924            move.l  -(a4),-(a4)
00008ec8  aaa5            a-line
00008eca  2925            move.l  -(a5),-(a4)
00008ecc  2aa5            move.l  -(a5),(a5)
00008ece  2925            move.l  -(a5),-(a4)
00008ed0  2aa5            move.l  -(a5),(a5)
00008ed2  2912            move.l  (a2),-(a4)
00008ed4  aaa5            a-line
00008ed6  2912            move.l  (a2),-(a4)
00008ed8  aaa5            a-line
00008eda  2911            move.l  (a1),-(a4)
00008edc  2aa5            move.l  -(a5),(a5)
00008ede  2911            move.l  (a1),-(a4)
00008ee0  2aa5            move.l  -(a5),(a5)
00008ee2  2912            move.l  (a2),-(a4)
00008ee4  aaa5            a-line
00008ee6  2912            move.l  (a2),-(a4)
00008ee8  aaa5            a-line
00008eea  2911            move.l  (a1),-(a4)
00008eec  2aa5            move.l  -(a5),(a5)
00008eee  2911            move.l  (a1),-(a4)
00008ef0  2aa5            move.l  -(a5),(a5)
00008ef2  2914            move.l  (a4),-(a4)
00008ef4  aaa5            a-line
00008ef6  2914            move.l  (a4),-(a4)
00008ef8  aaa5            a-line
00008efa  2915            move.l  (a5),-(a4)
00008efc  2aa5            move.l  -(a5),(a5)
00008efe  2915            move.l  (a5),-(a4)
00008f00  2aa5            move.l  -(a5),(a5)
00008f02  2914            move.l  (a4),-(a4)
00008f04  aaa5            a-line
00008f06  2914            move.l  (a4),-(a4)
00008f08  aaa5            a-line
00008f0a  2915            move.l  (a5),-(a4)
00008f0c  2aa5            move.l  -(a5),(a5)
00008f0e  2915            move.l  (a5),-(a4)
00008f10  2aa5            move.l  -(a5),(a5)
00008f12  2912            move.l  (a2),-(a4)
00008f14  aaa5            a-line
00008f16  2912            move.l  (a2),-(a4)
00008f18  aaa5            a-line
00008f1a  2911            move.l  (a1),-(a4)
00008f1c  2aa5            move.l  -(a5),(a5)
00008f1e  2911            move.l  (a1),-(a4)
00008f20  2aa5            move.l  -(a5),(a5)
00008f22  2912            move.l  (a2),-(a4)
00008f24  aaa5            a-line
00008f26  2912            move.l  (a2),-(a4)
00008f28  aaa5            a-line
00008f2a  2911            move.l  (a1),-(a4)
00008f2c  2aa5            move.l  -(a5),(a5)
00008f2e  2911            move.l  (a1),-(a4)
00008f30  2aa5            move.l  -(a5),(a5)
00008f32  2914            move.l  (a4),-(a4)
00008f34  aaa5            a-line
00008f36  2914            move.l  (a4),-(a4)
00008f38  aaa5            a-line
00008f3a  2915            move.l  (a5),-(a4)
00008f3c  2aa5            move.l  -(a5),(a5)
00008f3e  2915            move.l  (a5),-(a4)
00008f40  2aa5            move.l  -(a5),(a5)
00008f42  2914            move.l  (a4),-(a4)
00008f44  aaa5            a-line
00008f46  2914            move.l  (a4),-(a4)
00008f48  aaa5            a-line
00008f4a  2915            move.l  (a5),-(a4)
00008f4c  2aa5            move.l  -(a5),(a5)
00008f4e  2915            move.l  (a5),-(a4)
00008f50  4445            neg.w   d5
00008f52  512a 4445       subq.b  #8,4445(a2)
00008f56  5129 4445       subq.b  #8,4445(a1)
00008f5a  512a 4445       subq.b  #8,4445(a2)
00008f5e  5129 4445       subq.b  #8,4445(a1)
00008f62  5124            subq.b  #8,-(a4)
00008f64  4445            neg.w   d5
00008f66  5125            subq.b  #8,-(a5)
00008f68  4445            neg.w   d5
00008f6a  5124            subq.b  #8,-(a4)
00008f6c  4445            neg.w   d5
00008f6e  5125            subq.b  #8,-(a5)
00008f70  4445            neg.w   d5
00008f72  512a 4445       subq.b  #8,4445(a2)
00008f76  5129 4445       subq.b  #8,4445(a1)
00008f7a  512a 4445       subq.b  #8,4445(a2)
00008f7e  5129 4445       subq.b  #8,4445(a1)
00008f82  5124            subq.b  #8,-(a4)
00008f84  4445            neg.w   d5
00008f86  5125            subq.b  #8,-(a5)
00008f88  4445            neg.w   d5
00008f8a  5124            subq.b  #8,-(a4)
00008f8c  4445            neg.w   d5
00008f8e  5125            subq.b  #8,-(a5)
00008f90  4445            neg.w   d5
00008f92  5112            subq.b  #8,(a2)
00008f94  4445            neg.w   d5
00008f96  5111            subq.b  #8,(a1)
00008f98  4445            neg.w   d5
00008f9a  5112            subq.b  #8,(a2)
00008f9c  4445            neg.w   d5
00008f9e  5111            subq.b  #8,(a1)
00008fa0  4445            neg.w   d5
00008fa2  5114            subq.b  #8,(a4)
00008fa4  4445            neg.w   d5
00008fa6  5115            subq.b  #8,(a5)
00008fa8  4445            neg.w   d5
00008faa  5114            subq.b  #8,(a4)
00008fac  4445            neg.w   d5
00008fae  5115            subq.b  #8,(a5)
00008fb0  4445            neg.w   d5
00008fb2  5112            subq.b  #8,(a2)
00008fb4  4445            neg.w   d5
00008fb6  5111            subq.b  #8,(a1)
00008fb8  4445            neg.w   d5
00008fba  5112            subq.b  #8,(a2)
00008fbc  4445            neg.w   d5
00008fbe  5111            subq.b  #8,(a1)
00008fc0  4445            neg.w   d5
00008fc2  5114            subq.b  #8,(a4)
00008fc4  4445            neg.w   d5
00008fc6  5115            subq.b  #8,(a5)
00008fc8  4445            neg.w   d5
00008fca  5114            subq.b  #8,(a4)
00008fcc  4445            neg.w   d5
00008fce  5115            subq.b  #8,(a5)
00008fd0  4445            neg.w   d5
00008fd2  512a 4445       subq.b  #8,4445(a2)
00008fd6  5129 4445       subq.b  #8,4445(a1)
00008fda  512a 4445       subq.b  #8,4445(a2)
00008fde  5129 4445       subq.b  #8,4445(a1)
00008fe2  5124            subq.b  #8,-(a4)
00008fe4  4445            neg.w   d5
00008fe6  5125            subq.b  #8,-(a5)
00008fe8  4445            neg.w   d5
00008fea  5124            subq.b  #8,-(a4)
00008fec  4445            neg.w   d5
00008fee  5125            subq.b  #8,-(a5)
00008ff0  4445            neg.w   d5
00008ff2  512a 4445       subq.b  #8,4445(a2)
00008ff6  5129 4445       subq.b  #8,4445(a1)
00008ffa  512a 4445       subq.b  #8,4445(a2)
00008ffe  5129 4445       subq.b  #8,4445(a1)
00009002  5124            subq.b  #8,-(a4)
00009004  4445            neg.w   d5
00009006  5125            subq.b  #8,-(a5)
00009008  4445            neg.w   d5
0000900a  5124            subq.b  #8,-(a4)
0000900c  4445            neg.w   d5
0000900e  5125            subq.b  #8,-(a5)
00009010  4445            neg.w   d5
00009012  5112            subq.b  #8,(a2)
00009014  4445            neg.w   d5
00009016  5111            subq.b  #8,(a1)
00009018  4445            neg.w   d5
0000901a  5112            subq.b  #8,(a2)
0000901c  4445            neg.w   d5
0000901e  5111            subq.b  #8,(a1)
00009020  4445            neg.w   d5
00009022  5114            subq.b  #8,(a4)
00009024  4445            neg.w   d5
00009026  5115            subq.b  #8,(a5)
00009028  4445            neg.w   d5
0000902a  5114            subq.b  #8,(a4)
0000902c  4445            neg.w   d5
0000902e  5115            subq.b  #8,(a5)
00009030  4445            neg.w   d5
00009032  5112            subq.b  #8,(a2)
00009034  4445            neg.w   d5
00009036  5111            subq.b  #8,(a1)
00009038  4445            neg.w   d5
0000903a  5112            subq.b  #8,(a2)
0000903c  4445            neg.w   d5
0000903e  5111            subq.b  #8,(a1)
00009040  4445            neg.w   d5
00009042  5114            subq.b  #8,(a4)
00009044  4445            neg.w   d5
00009046  5115            subq.b  #8,(a5)
00009048  4445            neg.w   d5
0000904a  5114            subq.b  #8,(a4)
0000904c  4445            neg.w   d5
0000904e  5115            subq.b  #8,(a5)
00009050  4445            neg.w   d5
00009052  514a            subq.w  #8,a2
00009054  4445            neg.w   d5
00009056  5149            subq.w  #8,a1
00009058  4445            neg.w   d5
0000905a  514a            subq.w  #8,a2
0000905c  4445            neg.w   d5
0000905e  5149            subq.w  #8,a1
00009060  4445            neg.w   d5
00009062  5144            subq.w  #8,d4
00009064  4445            neg.w   d5
00009066  5145            subq.w  #8,d5
00009068  4445            neg.w   d5
0000906a  5144            subq.w  #8,d4
0000906c  4445            neg.w   d5
0000906e  5145            subq.w  #8,d5
00009070  4445            neg.w   d5
00009072  514a            subq.w  #8,a2
00009074  4445            neg.w   d5
00009076  5149            subq.w  #8,a1
00009078  4445            neg.w   d5
0000907a  514a            subq.w  #8,a2
0000907c  4445            neg.w   d5
0000907e  5149            subq.w  #8,a1
00009080  4445            neg.w   d5
00009082  5144            subq.w  #8,d4
00009084  4445            neg.w   d5
00009086  5145            subq.w  #8,d5
00009088  4445            neg.w   d5
0000908a  5144            subq.w  #8,d4
0000908c  4445            neg.w   d5
0000908e  5145            subq.w  #8,d5
00009090  4445            neg.w   d5
00009092  5152            subq.w  #8,(a2)
00009094  4445            neg.w   d5
00009096  5151            subq.w  #8,(a1)
00009098  4445            neg.w   d5
0000909a  5152            subq.w  #8,(a2)
0000909c  4445            neg.w   d5
0000909e  5151            subq.w  #8,(a1)
000090a0  4445            neg.w   d5
000090a2  5154            subq.w  #8,(a4)
000090a4  4445            neg.w   d5
000090a6  5155            subq.w  #8,(a5)
000090a8  4445            neg.w   d5
000090aa  5154            subq.w  #8,(a4)
000090ac  4445            neg.w   d5
000090ae  5155            subq.w  #8,(a5)
000090b0  4445            neg.w   d5
000090b2  5152            subq.w  #8,(a2)
000090b4  4445            neg.w   d5
000090b6  5151            subq.w  #8,(a1)
000090b8  4445            neg.w   d5
000090ba  5152            subq.w  #8,(a2)
000090bc  4445            neg.w   d5
000090be  5151            subq.w  #8,(a1)
000090c0  4445            neg.w   d5
000090c2  5154            subq.w  #8,(a4)
000090c4  4445            neg.w   d5
000090c6  5155            subq.w  #8,(a5)
000090c8  4445            neg.w   d5
000090ca  5154            subq.w  #8,(a4)
000090cc  4445            neg.w   d5
000090ce  5155            subq.w  #8,(a5)
000090d0  4445            neg.w   d5
000090d2  514a            subq.w  #8,a2
000090d4  4445            neg.w   d5
000090d6  5149            subq.w  #8,a1
000090d8  4445            neg.w   d5
000090da  514a            subq.w  #8,a2
000090dc  4445            neg.w   d5
000090de  5149            subq.w  #8,a1
000090e0  4445            neg.w   d5
000090e2  5144            subq.w  #8,d4
000090e4  4445            neg.w   d5
000090e6  5145            subq.w  #8,d5
000090e8  4445            neg.w   d5
000090ea  5144            subq.w  #8,d4
000090ec  4445            neg.w   d5
000090ee  5145            subq.w  #8,d5
000090f0  4445            neg.w   d5
000090f2  514a            subq.w  #8,a2
000090f4  4445            neg.w   d5
000090f6  5149            subq.w  #8,a1
000090f8  4445            neg.w   d5
000090fa  514a            subq.w  #8,a2
000090fc  4445            neg.w   d5
000090fe  5149            subq.w  #8,a1
00009100  4445            neg.w   d5
00009102  5144            subq.w  #8,d4
00009104  4445            neg.w   d5
00009106  5145            subq.w  #8,d5
00009108  4445            neg.w   d5
0000910a  5144            subq.w  #8,d4
0000910c  4445            neg.w   d5
0000910e  5145            subq.w  #8,d5
00009110  4445            neg.w   d5
00009112  5152            subq.w  #8,(a2)
00009114  4445            neg.w   d5
00009116  5151            subq.w  #8,(a1)
00009118  4445            neg.w   d5
0000911a  5152            subq.w  #8,(a2)
0000911c  4445            neg.w   d5
0000911e  5151            subq.w  #8,(a1)
00009120  4445            neg.w   d5
00009122  5154            subq.w  #8,(a4)
00009124  4445            neg.w   d5
00009126  5155            subq.w  #8,(a5)
00009128  4445            neg.w   d5
0000912a  5154            subq.w  #8,(a4)
0000912c  4445            neg.w   d5
0000912e  5155            subq.w  #8,(a5)
00009130  4445            neg.w   d5
00009132  5152            subq.w  #8,(a2)
00009134  4445            neg.w   d5
00009136  5151            subq.w  #8,(a1)
00009138  4445            neg.w   d5
0000913a  5152            subq.w  #8,(a2)
0000913c  4445            neg.w   d5
0000913e  5151            subq.w  #8,(a1)
00009140  4445            neg.w   d5
00009142  5154            subq.w  #8,(a4)
00009144  4445            neg.w   d5
00009146  5155            subq.w  #8,(a5)
00009148  4445            neg.w   d5
0000914a  5154            subq.w  #8,(a4)
0000914c  4445            neg.w   d5
0000914e  5155            subq.w  #8,(a5)
00009150  2aaa aaaa       move.l  -5556(a2),(a5)
00009154  4489            neg.l   a1
00009156  4489            neg.l   a1
00009158  552a a929       subq.b  #2,-56d7(a2)
0000915c  552a a92a       subq.b  #2,-56d6(a2)
00009160  aaaa            a-line
00009162  aaaa            a-line
00009164  aaaa            a-line
00009166  aaaa            a-line
00009168  aaaa            a-line
0000916a  aaaa            a-line
0000916c  aaaa            a-line
0000916e  aaaa            a-line
00009170  aaaa            a-line
00009172  aaaa            a-line
00009174  aaaa            a-line
00009176  aaaa            a-line
00009178  aaaa            a-line
0000917a  aaaa            a-line
0000917c  aaaa            a-line
0000917e  aaaa            a-line
00009180  aaaa            a-line
00009182  aaaa            a-line
00009184  aaaa            a-line
00009186  aaa9            a-line
00009188  2aaa aaaa       move.l  -5556(a2),(a5)
0000918c  aaaa            a-line
0000918e  aaaa            a-line
00009190  aaa5            a-line
00009192  294a aaa5       move.l  a2,-555b(a4)
00009196  294a aaa5       move.l  a2,-555b(a4)
0000919a  2949 2aa5       move.l  a1,2aa5(a4)
0000919e  2949 2aa5       move.l  a1,2aa5(a4)
000091a2  294a aaa5       move.l  a2,-555b(a4)
000091a6  294a aaa5       move.l  a2,-555b(a4)
000091aa  2949 2aa5       move.l  a1,2aa5(a4)
000091ae  2949 2aa5       move.l  a1,2aa5(a4)
000091b2  2944 aaa5       move.l  d4,-555b(a4)
000091b6  2944 aaa5       move.l  d4,-555b(a4)
000091ba  2945 2aa5       move.l  d5,2aa5(a4)
000091be  2945 2aa5       move.l  d5,2aa5(a4)
000091c2  2944 aaa5       move.l  d4,-555b(a4)
000091c6  2944 aaa5       move.l  d4,-555b(a4)
000091ca  2945 2aa5       move.l  d5,2aa5(a4)
000091ce  2945 2aa5       move.l  d5,2aa5(a4)
000091d2  294a aaa5       move.l  a2,-555b(a4)
000091d6  294a aaa5       move.l  a2,-555b(a4)
000091da  2949 2aa5       move.l  a1,2aa5(a4)
000091de  2949 2aa5       move.l  a1,2aa5(a4)
000091e2  294a aaa5       move.l  a2,-555b(a4)
000091e6  294a aaa5       move.l  a2,-555b(a4)
000091ea  2949 2aa5       move.l  a1,2aa5(a4)
000091ee  2949 2aa5       move.l  a1,2aa5(a4)
000091f2  2944 aaa5       move.l  d4,-555b(a4)
000091f6  2944 aaa5       move.l  d4,-555b(a4)
000091fa  2945 2aa5       move.l  d5,2aa5(a4)
000091fe  2945 2aa5       move.l  d5,2aa5(a4)
00009202  2944 aaa5       move.l  d4,-555b(a4)
00009206  2944 aaa5       move.l  d4,-555b(a4)
0000920a  2945 2aa5       move.l  d5,2aa5(a4)
0000920e  2945 2aa5       move.l  d5,2aa5(a4)
00009212  2952 aaa5       move.l  (a2),-555b(a4)
00009216  2952 aaa5       move.l  (a2),-555b(a4)
0000921a  2951 2aa5       move.l  (a1),2aa5(a4)
0000921e  2951 2aa5       move.l  (a1),2aa5(a4)
00009222  2952 aaa5       move.l  (a2),-555b(a4)
00009226  2952 aaa5       move.l  (a2),-555b(a4)
0000922a  2951 2aa5       move.l  (a1),2aa5(a4)
0000922e  2951 2aa5       move.l  (a1),2aa5(a4)
00009232  2954 aaa5       move.l  (a4),-555b(a4)
00009236  2954 aaa5       move.l  (a4),-555b(a4)
0000923a  2955 2aa5       move.l  (a5),2aa5(a4)
0000923e  2955 2aa5       move.l  (a5),2aa5(a4)
00009242  2954 aaa5       move.l  (a4),-555b(a4)
00009246  2954 aaa5       move.l  (a4),-555b(a4)
0000924a  2955 2aa5       move.l  (a5),2aa5(a4)
0000924e  2955 2aa5       move.l  (a5),2aa5(a4)
00009252  2952 aaa5       move.l  (a2),-555b(a4)
00009256  2952 aaa5       move.l  (a2),-555b(a4)
0000925a  2951 2aa5       move.l  (a1),2aa5(a4)
0000925e  2951 2aa5       move.l  (a1),2aa5(a4)
00009262  2952 aaa5       move.l  (a2),-555b(a4)
00009266  2952 aaa5       move.l  (a2),-555b(a4)
0000926a  2951 2aa5       move.l  (a1),2aa5(a4)
0000926e  2951 2aa5       move.l  (a1),2aa5(a4)
00009272  2954 aaa5       move.l  (a4),-555b(a4)
00009276  2954 aaa5       move.l  (a4),-555b(a4)
0000927a  2955 2aa5       move.l  (a5),2aa5(a4)
0000927e  2955 2aa5       move.l  (a5),2aa5(a4)
00009282  2954 aaa5       move.l  (a4),-555b(a4)
00009286  2954 aaa5       move.l  (a4),-555b(a4)
0000928a  2955 2aa5       move.l  (a5),2aa5(a4)
0000928e  2955 2aa5       move.l  (a5),2aa5(a4)
00009292  294a aaa5       move.l  a2,-555b(a4)
00009296  294a aaa5       move.l  a2,-555b(a4)
0000929a  2949 2aa5       move.l  a1,2aa5(a4)
0000929e  2949 2aa5       move.l  a1,2aa5(a4)
000092a2  294a aaa5       move.l  a2,-555b(a4)
000092a6  294a aaa5       move.l  a2,-555b(a4)
000092aa  2949 2aa5       move.l  a1,2aa5(a4)
000092ae  2949 2aa5       move.l  a1,2aa5(a4)
000092b2  2944 aaa5       move.l  d4,-555b(a4)
000092b6  2944 aaa5       move.l  d4,-555b(a4)
000092ba  2945 2aa5       move.l  d5,2aa5(a4)
000092be  2945 2aa5       move.l  d5,2aa5(a4)
000092c2  2944 aaa5       move.l  d4,-555b(a4)
000092c6  2944 aaa5       move.l  d4,-555b(a4)
000092ca  2945 2aa5       move.l  d5,2aa5(a4)
000092ce  2945 2aa5       move.l  d5,2aa5(a4)
000092d2  294a aaa5       move.l  a2,-555b(a4)
000092d6  294a aaa5       move.l  a2,-555b(a4)
000092da  2949 2aa5       move.l  a1,2aa5(a4)
000092de  2949 2aa5       move.l  a1,2aa5(a4)
000092e2  294a aaa5       move.l  a2,-555b(a4)
000092e6  294a aaa5       move.l  a2,-555b(a4)
000092ea  2949 2aa5       move.l  a1,2aa5(a4)
000092ee  2949 2aa5       move.l  a1,2aa5(a4)
000092f2  2944 aaa5       move.l  d4,-555b(a4)
000092f6  2944 aaa5       move.l  d4,-555b(a4)
000092fa  2945 2aa5       move.l  d5,2aa5(a4)
000092fe  2945 2aa5       move.l  d5,2aa5(a4)
00009302  2944 aaa5       move.l  d4,-555b(a4)
00009306  2944 aaa5       move.l  d4,-555b(a4)
0000930a  2945 2aa5       move.l  d5,2aa5(a4)
0000930e  2945 2aa5       move.l  d5,2aa5(a4)
00009312  2952 aaa5       move.l  (a2),-555b(a4)
00009316  2952 aaa5       move.l  (a2),-555b(a4)
0000931a  2951 2aa5       move.l  (a1),2aa5(a4)
0000931e  2951 2aa5       move.l  (a1),2aa5(a4)
00009322  2952 aaa5       move.l  (a2),-555b(a4)
00009326  2952 aaa5       move.l  (a2),-555b(a4)
0000932a  2951 2aa5       move.l  (a1),2aa5(a4)
0000932e  2951 2aa5       move.l  (a1),2aa5(a4)
00009332  2954 aaa5       move.l  (a4),-555b(a4)
00009336  2954 aaa5       move.l  (a4),-555b(a4)
0000933a  2955 2aa5       move.l  (a5),2aa5(a4)
0000933e  2955 2aa5       move.l  (a5),2aa5(a4)
00009342  2954 aaa5       move.l  (a4),-555b(a4)
00009346  2954 aaa5       move.l  (a4),-555b(a4)
0000934a  2955 2aa5       move.l  (a5),2aa5(a4)
0000934e  2955 2aa5       move.l  (a5),2aa5(a4)
00009352  2952 aaa5       move.l  (a2),-555b(a4)
00009356  2952 aaa5       move.l  (a2),-555b(a4)
0000935a  2951 2aa5       move.l  (a1),2aa5(a4)
0000935e  2951 2aa5       move.l  (a1),2aa5(a4)
00009362  2952 aaa5       move.l  (a2),-555b(a4)
00009366  2952 aaa5       move.l  (a2),-555b(a4)
0000936a  2951 2aa5       move.l  (a1),2aa5(a4)
0000936e  2951 2aa5       move.l  (a1),2aa5(a4)
00009372  2954 aaa5       move.l  (a4),-555b(a4)
00009376  2954 aaa5       move.l  (a4),-555b(a4)
0000937a  2955 2aa5       move.l  (a5),2aa5(a4)
0000937e  2955 2aa5       move.l  (a5),2aa5(a4)
00009382  2954 aaa5       move.l  (a4),-555b(a4)
00009386  2954 aaa5       move.l  (a4),-555b(a4)
0000938a  2955 2aa5       move.l  (a5),2aa5(a4)
0000938e  2955 4445       move.l  (a5),4445(a4)
00009392  512a 4445       subq.b  #8,4445(a2)
00009396  5129 4445       subq.b  #8,4445(a1)
0000939a  512a 4445       subq.b  #8,4445(a2)
0000939e  5129 4445       subq.b  #8,4445(a1)
000093a2  5124            subq.b  #8,-(a4)
000093a4  4445            neg.w   d5
000093a6  5125            subq.b  #8,-(a5)
000093a8  4445            neg.w   d5
000093aa  5124            subq.b  #8,-(a4)
000093ac  4445            neg.w   d5
000093ae  5125            subq.b  #8,-(a5)
000093b0  4445            neg.w   d5
000093b2  512a 4445       subq.b  #8,4445(a2)
000093b6  5129 4445       subq.b  #8,4445(a1)
000093ba  512a 4445       subq.b  #8,4445(a2)
000093be  5129 4445       subq.b  #8,4445(a1)
000093c2  5124            subq.b  #8,-(a4)
000093c4  4445            neg.w   d5
000093c6  5125            subq.b  #8,-(a5)
000093c8  4445            neg.w   d5
000093ca  5124            subq.b  #8,-(a4)
000093cc  4445            neg.w   d5
000093ce  5125            subq.b  #8,-(a5)
000093d0  4445            neg.w   d5
000093d2  5112            subq.b  #8,(a2)
000093d4  4445            neg.w   d5
000093d6  5111            subq.b  #8,(a1)
000093d8  4445            neg.w   d5
000093da  5112            subq.b  #8,(a2)
000093dc  4445            neg.w   d5
000093de  5111            subq.b  #8,(a1)
000093e0  4445            neg.w   d5
000093e2  5114            subq.b  #8,(a4)
000093e4  4445            neg.w   d5
000093e6  5115            subq.b  #8,(a5)
000093e8  4445            neg.w   d5
000093ea  5114            subq.b  #8,(a4)
000093ec  4445            neg.w   d5
000093ee  5115            subq.b  #8,(a5)
000093f0  4445            neg.w   d5
000093f2  5112            subq.b  #8,(a2)
000093f4  4445            neg.w   d5
000093f6  5111            subq.b  #8,(a1)
000093f8  4445            neg.w   d5
000093fa  5112            subq.b  #8,(a2)
000093fc  4445            neg.w   d5
000093fe  5111            subq.b  #8,(a1)
00009400  4445            neg.w   d5
00009402  5114            subq.b  #8,(a4)
00009404  4445            neg.w   d5
00009406  5115            subq.b  #8,(a5)
00009408  4445            neg.w   d5
0000940a  5114            subq.b  #8,(a4)
0000940c  4445            neg.w   d5
0000940e  5115            subq.b  #8,(a5)
00009410  4445            neg.w   d5
00009412  512a 4445       subq.b  #8,4445(a2)
00009416  5129 4445       subq.b  #8,4445(a1)
0000941a  512a 4445       subq.b  #8,4445(a2)
0000941e  5129 4445       subq.b  #8,4445(a1)
00009422  5124            subq.b  #8,-(a4)
00009424  4445            neg.w   d5
00009426  5125            subq.b  #8,-(a5)
00009428  4445            neg.w   d5
0000942a  5124            subq.b  #8,-(a4)
0000942c  4445            neg.w   d5
0000942e  5125            subq.b  #8,-(a5)
00009430  4445            neg.w   d5
00009432  512a 4445       subq.b  #8,4445(a2)
00009436  5129 4445       subq.b  #8,4445(a1)
0000943a  512a 4445       subq.b  #8,4445(a2)
0000943e  5129 4445       subq.b  #8,4445(a1)
00009442  5124            subq.b  #8,-(a4)
00009444  4445            neg.w   d5
00009446  5125            subq.b  #8,-(a5)
00009448  4445            neg.w   d5
0000944a  5124            subq.b  #8,-(a4)
0000944c  4445            neg.w   d5
0000944e  5125            subq.b  #8,-(a5)
00009450  4445            neg.w   d5
00009452  5112            subq.b  #8,(a2)
00009454  4445            neg.w   d5
00009456  5111            subq.b  #8,(a1)
00009458  4445            neg.w   d5
0000945a  5112            subq.b  #8,(a2)
0000945c  4445            neg.w   d5
0000945e  5111            subq.b  #8,(a1)
00009460  4445            neg.w   d5
00009462  5114            subq.b  #8,(a4)
00009464  4445            neg.w   d5
00009466  5115            subq.b  #8,(a5)
00009468  4445            neg.w   d5
0000946a  5114            subq.b  #8,(a4)
0000946c  4445            neg.w   d5
0000946e  5115            subq.b  #8,(a5)
00009470  4445            neg.w   d5
00009472  5112            subq.b  #8,(a2)
00009474  4445            neg.w   d5
00009476  5111            subq.b  #8,(a1)
00009478  4445            neg.w   d5
0000947a  5112            subq.b  #8,(a2)
0000947c  4445            neg.w   d5
0000947e  5111            subq.b  #8,(a1)
00009480  4445            neg.w   d5
00009482  5114            subq.b  #8,(a4)
00009484  4445            neg.w   d5
00009486  5115            subq.b  #8,(a5)
00009488  4445            neg.w   d5
0000948a  5114            subq.b  #8,(a4)
0000948c  4445            neg.w   d5
0000948e  5115            subq.b  #8,(a5)
00009490  4445            neg.w   d5
00009492  514a            subq.w  #8,a2
00009494  4445            neg.w   d5
00009496  5149            subq.w  #8,a1
00009498  4445            neg.w   d5
0000949a  514a            subq.w  #8,a2
0000949c  4445            neg.w   d5
0000949e  5149            subq.w  #8,a1
000094a0  4445            neg.w   d5
000094a2  5144            subq.w  #8,d4
000094a4  4445            neg.w   d5
000094a6  5145            subq.w  #8,d5
000094a8  4445            neg.w   d5
000094aa  5144            subq.w  #8,d4
000094ac  4445            neg.w   d5
000094ae  5145            subq.w  #8,d5
000094b0  4445            neg.w   d5
000094b2  514a            subq.w  #8,a2
000094b4  4445            neg.w   d5
000094b6  5149            subq.w  #8,a1
000094b8  4445            neg.w   d5
000094ba  514a            subq.w  #8,a2
000094bc  4445            neg.w   d5
000094be  5149            subq.w  #8,a1
000094c0  4445            neg.w   d5
000094c2  5144            subq.w  #8,d4
000094c4  4445            neg.w   d5
000094c6  5145            subq.w  #8,d5
000094c8  4445            neg.w   d5
000094ca  5144            subq.w  #8,d4
000094cc  4445            neg.w   d5
000094ce  5145            subq.w  #8,d5
000094d0  4445            neg.w   d5
000094d2  5152            subq.w  #8,(a2)
000094d4  4445            neg.w   d5
000094d6  5151            subq.w  #8,(a1)
000094d8  4445            neg.w   d5
000094da  5152            subq.w  #8,(a2)
000094dc  4445            neg.w   d5
000094de  5151            subq.w  #8,(a1)
000094e0  4445            neg.w   d5
000094e2  5154            subq.w  #8,(a4)
000094e4  4445            neg.w   d5
000094e6  5155            subq.w  #8,(a5)
000094e8  4445            neg.w   d5
000094ea  5154            subq.w  #8,(a4)
000094ec  4445            neg.w   d5
000094ee  5155            subq.w  #8,(a5)
000094f0  4445            neg.w   d5
000094f2  5152            subq.w  #8,(a2)
000094f4  4445            neg.w   d5
000094f6  5151            subq.w  #8,(a1)
000094f8  4445            neg.w   d5
000094fa  5152            subq.w  #8,(a2)
000094fc  4445            neg.w   d5
000094fe  5151            subq.w  #8,(a1)
00009500  4445            neg.w   d5
00009502  5154            subq.w  #8,(a4)
00009504  4445            neg.w   d5
00009506  5155            subq.w  #8,(a5)
00009508  4445            neg.w   d5
0000950a  5154            subq.w  #8,(a4)
0000950c  4445            neg.w   d5
0000950e  5155            subq.w  #8,(a5)
00009510  4445            neg.w   d5
00009512  514a            subq.w  #8,a2
00009514  4445            neg.w   d5
00009516  5149            subq.w  #8,a1
00009518  4445            neg.w   d5
0000951a  514a            subq.w  #8,a2
0000951c  4445            neg.w   d5
0000951e  5149            subq.w  #8,a1
00009520  4445            neg.w   d5
00009522  5144            subq.w  #8,d4
00009524  4445            neg.w   d5
00009526  5145            subq.w  #8,d5
00009528  4445            neg.w   d5
0000952a  5144            subq.w  #8,d4
0000952c  4445            neg.w   d5
0000952e  5145            subq.w  #8,d5
00009530  4445            neg.w   d5
00009532  514a            subq.w  #8,a2
00009534  4445            neg.w   d5
00009536  5149            subq.w  #8,a1
00009538  4445            neg.w   d5
0000953a  514a            subq.w  #8,a2
0000953c  4445            neg.w   d5
0000953e  5149            subq.w  #8,a1
00009540  4445            neg.w   d5
00009542  5144            subq.w  #8,d4
00009544  4445            neg.w   d5
00009546  5145            subq.w  #8,d5
00009548  4445            neg.w   d5
0000954a  5144            subq.w  #8,d4
0000954c  4445            neg.w   d5
0000954e  5145            subq.w  #8,d5
00009550  4445            neg.w   d5
00009552  5152            subq.w  #8,(a2)
00009554  4445            neg.w   d5
00009556  5151            subq.w  #8,(a1)
00009558  4445            neg.w   d5
0000955a  5152            subq.w  #8,(a2)
0000955c  4445            neg.w   d5
0000955e  5151            subq.w  #8,(a1)
00009560  4445            neg.w   d5
00009562  5154            subq.w  #8,(a4)
00009564  4445            neg.w   d5
00009566  5155            subq.w  #8,(a5)
00009568  4445            neg.w   d5
0000956a  5154            subq.w  #8,(a4)
0000956c  4445            neg.w   d5
0000956e  5155            subq.w  #8,(a5)
00009570  4445            neg.w   d5
00009572  5152            subq.w  #8,(a2)
00009574  4445            neg.w   d5
00009576  5151            subq.w  #8,(a1)
00009578  4445            neg.w   d5
0000957a  5152            subq.w  #8,(a2)
0000957c  4445            neg.w   d5
0000957e  5151            subq.w  #8,(a1)
00009580  4445            neg.w   d5
00009582  5154            subq.w  #8,(a4)
00009584  4445            neg.w   d5
00009586  5155            subq.w  #8,(a5)
00009588  4445            neg.w   d5
0000958a  5154            subq.w  #8,(a4)
0000958c  4445            neg.w   d5
0000958e  5155            subq.w  #8,(a5)
00009590  2aaa aaaa       move.l  -5556(a2),(a5)
00009594  4489            neg.l   a1
00009596  4489            neg.l   a1
00009598  552a aaaa       subq.b  #2,-5556(a2)
0000959c  552a a4a9       subq.b  #2,-5b57(a2)
000095a0  2aaa aaaa       move.l  -5556(a2),(a5)
000095a4  aaaa            a-line
000095a6  aaaa            a-line
000095a8  aaaa            a-line
000095aa  aaaa            a-line
000095ac  aaaa            a-line
000095ae  aaaa            a-line
000095b0  aaaa            a-line
000095b2  aaaa            a-line
000095b4  aaaa            a-line
000095b6  aaaa            a-line
000095b8  aaaa            a-line
000095ba  aaaa            a-line
000095bc  aaaa            a-line
000095be  aaaa            a-line
000095c0  aaaa            a-line
000095c2  aaaa            a-line
000095c4  aaaa            a-line
000095c6  a4a9            a-line
000095c8  2aaa aaaa       move.l  -5556(a2),(a5)
000095cc  aaaa            a-line
000095ce  aaaa            a-line
000095d0  aaa5            a-line
000095d2  292a aaa5       move.l  -555b(a2),-(a4)
000095d6  292a aaa5       move.l  -555b(a2),-(a4)
000095da  2929 2aa5       move.l  2aa5(a1),-(a4)
000095de  2929 2aa5       move.l  2aa5(a1),-(a4)
000095e2  292a aaa5       move.l  -555b(a2),-(a4)
000095e6  292a aaa5       move.l  -555b(a2),-(a4)
000095ea  2929 2aa5       move.l  2aa5(a1),-(a4)
000095ee  2929 2aa5       move.l  2aa5(a1),-(a4)
000095f2  2924            move.l  -(a4),-(a4)
000095f4  aaa5            a-line
000095f6  2924            move.l  -(a4),-(a4)
000095f8  aaa5            a-line
000095fa  2925            move.l  -(a5),-(a4)
000095fc  2aa5            move.l  -(a5),(a5)
000095fe  2925            move.l  -(a5),-(a4)
00009600  2aa5            move.l  -(a5),(a5)
00009602  2924            move.l  -(a4),-(a4)
00009604  aaa5            a-line
00009606  2924            move.l  -(a4),-(a4)
00009608  aaa5            a-line
0000960a  2925            move.l  -(a5),-(a4)
0000960c  2aa5            move.l  -(a5),(a5)
0000960e  2925            move.l  -(a5),-(a4)
00009610  2aa5            move.l  -(a5),(a5)
00009612  292a aaa5       move.l  -555b(a2),-(a4)
00009616  292a aaa5       move.l  -555b(a2),-(a4)
0000961a  2929 2aa5       move.l  2aa5(a1),-(a4)
0000961e  2929 2aa5       move.l  2aa5(a1),-(a4)
00009622  292a aaa5       move.l  -555b(a2),-(a4)
00009626  292a aaa5       move.l  -555b(a2),-(a4)
0000962a  2929 2aa5       move.l  2aa5(a1),-(a4)
0000962e  2929 2aa5       move.l  2aa5(a1),-(a4)
00009632  2924            move.l  -(a4),-(a4)
00009634  aaa5            a-line
00009636  2924            move.l  -(a4),-(a4)
00009638  aaa5            a-line
0000963a  2925            move.l  -(a5),-(a4)
0000963c  2aa5            move.l  -(a5),(a5)
0000963e  2925            move.l  -(a5),-(a4)
00009640  2aa5            move.l  -(a5),(a5)
00009642  2924            move.l  -(a4),-(a4)
00009644  aaa5            a-line
00009646  2924            move.l  -(a4),-(a4)
00009648  aaa5            a-line
0000964a  2925            move.l  -(a5),-(a4)
0000964c  2aa5            move.l  -(a5),(a5)
0000964e  2925            move.l  -(a5),-(a4)
00009650  2aa5            move.l  -(a5),(a5)
00009652  2912            move.l  (a2),-(a4)
00009654  aaa5            a-line
00009656  2912            move.l  (a2),-(a4)
00009658  aaa5            a-line
0000965a  2911            move.l  (a1),-(a4)
0000965c  2aa5            move.l  -(a5),(a5)
0000965e  2911            move.l  (a1),-(a4)
00009660  2aa5            move.l  -(a5),(a5)
00009662  2912            move.l  (a2),-(a4)
00009664  aaa5            a-line
00009666  2912            move.l  (a2),-(a4)
00009668  aaa5            a-line
0000966a  2911            move.l  (a1),-(a4)
0000966c  2aa5            move.l  -(a5),(a5)
0000966e  2911            move.l  (a1),-(a4)
00009670  2aa5            move.l  -(a5),(a5)
00009672  2914            move.l  (a4),-(a4)
00009674  aaa5            a-line
00009676  2914            move.l  (a4),-(a4)
00009678  aaa5            a-line
0000967a  2915            move.l  (a5),-(a4)
0000967c  2aa5            move.l  -(a5),(a5)
0000967e  2915            move.l  (a5),-(a4)
00009680  2aa5            move.l  -(a5),(a5)
00009682  2914            move.l  (a4),-(a4)
00009684  aaa5            a-line
00009686  2914            move.l  (a4),-(a4)
00009688  aaa5            a-line
0000968a  2915            move.l  (a5),-(a4)
0000968c  2aa5            move.l  -(a5),(a5)
0000968e  2915            move.l  (a5),-(a4)
00009690  2aa5            move.l  -(a5),(a5)
00009692  2912            move.l  (a2),-(a4)
00009694  aaa5            a-line
00009696  2912            move.l  (a2),-(a4)
00009698  aaa5            a-line
0000969a  2911            move.l  (a1),-(a4)
0000969c  2aa5            move.l  -(a5),(a5)
0000969e  2911            move.l  (a1),-(a4)
000096a0  2aa5            move.l  -(a5),(a5)
000096a2  2912            move.l  (a2),-(a4)
000096a4  aaa5            a-line
000096a6  2912            move.l  (a2),-(a4)
000096a8  aaa5            a-line
000096aa  2911            move.l  (a1),-(a4)
000096ac  2aa5            move.l  -(a5),(a5)
000096ae  2911            move.l  (a1),-(a4)
000096b0  2aa5            move.l  -(a5),(a5)
000096b2  2914            move.l  (a4),-(a4)
000096b4  aaa5            a-line
000096b6  2914            move.l  (a4),-(a4)
000096b8  aaa5            a-line
000096ba  2915            move.l  (a5),-(a4)
000096bc  2aa5            move.l  -(a5),(a5)
000096be  2915            move.l  (a5),-(a4)
000096c0  2aa5            move.l  -(a5),(a5)
000096c2  2914            move.l  (a4),-(a4)
000096c4  aaa5            a-line
000096c6  2914            move.l  (a4),-(a4)
000096c8  aaa5            a-line
000096ca  2915            move.l  (a5),-(a4)
000096cc  2aa5            move.l  -(a5),(a5)
000096ce  2915            move.l  (a5),-(a4)
000096d0  2aa5            move.l  -(a5),(a5)
000096d2  292a aaa5       move.l  -555b(a2),-(a4)
000096d6  292a aaa5       move.l  -555b(a2),-(a4)
000096da  2929 2aa5       move.l  2aa5(a1),-(a4)
000096de  2929 2aa5       move.l  2aa5(a1),-(a4)
000096e2  292a aaa5       move.l  -555b(a2),-(a4)
000096e6  292a aaa5       move.l  -555b(a2),-(a4)
000096ea  2929 2aa5       move.l  2aa5(a1),-(a4)
000096ee  2929 2aa5       move.l  2aa5(a1),-(a4)
000096f2  2924            move.l  -(a4),-(a4)
000096f4  aaa5            a-line
000096f6  2924            move.l  -(a4),-(a4)
000096f8  aaa5            a-line
000096fa  2925            move.l  -(a5),-(a4)
000096fc  2aa5            move.l  -(a5),(a5)
000096fe  2925            move.l  -(a5),-(a4)
00009700  2aa5            move.l  -(a5),(a5)
00009702  2924            move.l  -(a4),-(a4)
00009704  aaa5            a-line
00009706  2924            move.l  -(a4),-(a4)
00009708  aaa5            a-line
0000970a  2925            move.l  -(a5),-(a4)
0000970c  2aa5            move.l  -(a5),(a5)
0000970e  2925            move.l  -(a5),-(a4)
00009710  2aa5            move.l  -(a5),(a5)
00009712  292a aaa5       move.l  -555b(a2),-(a4)
00009716  292a aaa5       move.l  -555b(a2),-(a4)
0000971a  2929 2aa5       move.l  2aa5(a1),-(a4)
0000971e  2929 2aa5       move.l  2aa5(a1),-(a4)
00009722  292a aaa5       move.l  -555b(a2),-(a4)
00009726  292a aaa5       move.l  -555b(a2),-(a4)
0000972a  2929 2aa5       move.l  2aa5(a1),-(a4)
0000972e  2929 2aa5       move.l  2aa5(a1),-(a4)
00009732  2924            move.l  -(a4),-(a4)
00009734  aaa5            a-line
00009736  2924            move.l  -(a4),-(a4)
00009738  aaa5            a-line
0000973a  2925            move.l  -(a5),-(a4)
0000973c  2aa5            move.l  -(a5),(a5)
0000973e  2925            move.l  -(a5),-(a4)
00009740  2aa5            move.l  -(a5),(a5)
00009742  2924            move.l  -(a4),-(a4)
00009744  aaa5            a-line
00009746  2924            move.l  -(a4),-(a4)
00009748  aaa5            a-line
0000974a  2925            move.l  -(a5),-(a4)
0000974c  2aa5            move.l  -(a5),(a5)
0000974e  2925            move.l  -(a5),-(a4)
00009750  2aa5            move.l  -(a5),(a5)
00009752  2912            move.l  (a2),-(a4)
00009754  aaa5            a-line
00009756  2912            move.l  (a2),-(a4)
00009758  aaa5            a-line
0000975a  2911            move.l  (a1),-(a4)
0000975c  2aa5            move.l  -(a5),(a5)
0000975e  2911            move.l  (a1),-(a4)
00009760  2aa5            move.l  -(a5),(a5)
00009762  2912            move.l  (a2),-(a4)
00009764  aaa5            a-line
00009766  2912            move.l  (a2),-(a4)
00009768  aaa5            a-line
0000976a  2911            move.l  (a1),-(a4)
0000976c  2aa5            move.l  -(a5),(a5)
0000976e  2911            move.l  (a1),-(a4)
00009770  2aa5            move.l  -(a5),(a5)
00009772  2914            move.l  (a4),-(a4)
00009774  aaa5            a-line
00009776  2914            move.l  (a4),-(a4)
00009778  aaa5            a-line
0000977a  2915            move.l  (a5),-(a4)
0000977c  2aa5            move.l  -(a5),(a5)
0000977e  2915            move.l  (a5),-(a4)
00009780  2aa5            move.l  -(a5),(a5)
00009782  2914            move.l  (a4),-(a4)
00009784  aaa5            a-line
00009786  2914            move.l  (a4),-(a4)
00009788  aaa5            a-line
0000978a  2915            move.l  (a5),-(a4)
0000978c  2aa5            move.l  -(a5),(a5)
0000978e  2915            move.l  (a5),-(a4)
00009790  2aa5            move.l  -(a5),(a5)
00009792  2912            move.l  (a2),-(a4)
00009794  aaa5            a-line
00009796  2912            move.l  (a2),-(a4)
00009798  aaa5            a-line
0000979a  2911            move.l  (a1),-(a4)
0000979c  2aa5            move.l  -(a5),(a5)
0000979e  2911            move.l  (a1),-(a4)
000097a0  2aa5            move.l  -(a5),(a5)
000097a2  2912            move.l  (a2),-(a4)
000097a4  aaa5            a-line
000097a6  2912            move.l  (a2),-(a4)
000097a8  aaa5            a-line
000097aa  2911            move.l  (a1),-(a4)
000097ac  2aa5            move.l  -(a5),(a5)
000097ae  2911            move.l  (a1),-(a4)
000097b0  2aa5            move.l  -(a5),(a5)
000097b2  2914            move.l  (a4),-(a4)
000097b4  aaa5            a-line
000097b6  2914            move.l  (a4),-(a4)
000097b8  aaa5            a-line
000097ba  2915            move.l  (a5),-(a4)
000097bc  2aa5            move.l  -(a5),(a5)
000097be  2915            move.l  (a5),-(a4)
000097c0  2aa5            move.l  -(a5),(a5)
000097c2  2914            move.l  (a4),-(a4)
000097c4  aaa5            a-line
000097c6  2914            move.l  (a4),-(a4)
000097c8  aaa5            a-line
000097ca  2915            move.l  (a5),-(a4)
000097cc  2aa5            move.l  -(a5),(a5)
000097ce  2915            move.l  (a5),-(a4)
000097d0  4445            neg.w   d5
000097d2  512a 4445       subq.b  #8,4445(a2)
000097d6  5129 4445       subq.b  #8,4445(a1)
000097da  512a 4445       subq.b  #8,4445(a2)
000097de  5129 4445       subq.b  #8,4445(a1)
000097e2  5124            subq.b  #8,-(a4)
000097e4  4445            neg.w   d5
000097e6  5125            subq.b  #8,-(a5)
000097e8  4445            neg.w   d5
000097ea  5124            subq.b  #8,-(a4)
000097ec  4445            neg.w   d5
000097ee  5125            subq.b  #8,-(a5)
000097f0  4445            neg.w   d5
000097f2  512a 4445       subq.b  #8,4445(a2)
000097f6  5129 4445       subq.b  #8,4445(a1)
000097fa  512a 4445       subq.b  #8,4445(a2)
000097fe  5129 4445       subq.b  #8,4445(a1)
00009802  5124            subq.b  #8,-(a4)
00009804  4445            neg.w   d5
00009806  5125            subq.b  #8,-(a5)
00009808  4445            neg.w   d5
0000980a  5124            subq.b  #8,-(a4)
0000980c  4445            neg.w   d5
0000980e  5125            subq.b  #8,-(a5)
00009810  4445            neg.w   d5
00009812  5112            subq.b  #8,(a2)
00009814  4445            neg.w   d5
00009816  5111            subq.b  #8,(a1)
00009818  4445            neg.w   d5
0000981a  5112            subq.b  #8,(a2)
0000981c  4445            neg.w   d5
0000981e  5111            subq.b  #8,(a1)
00009820  4445            neg.w   d5
00009822  5114            subq.b  #8,(a4)
00009824  4445            neg.w   d5
00009826  5115            subq.b  #8,(a5)
00009828  4445            neg.w   d5
0000982a  5114            subq.b  #8,(a4)
0000982c  4445            neg.w   d5
0000982e  5115            subq.b  #8,(a5)
00009830  4445            neg.w   d5
00009832  5112            subq.b  #8,(a2)
00009834  4445            neg.w   d5
00009836  5111            subq.b  #8,(a1)
00009838  4445            neg.w   d5
0000983a  5112            subq.b  #8,(a2)
0000983c  4445            neg.w   d5
0000983e  5111            subq.b  #8,(a1)
00009840  4445            neg.w   d5
00009842  5114            subq.b  #8,(a4)
00009844  4445            neg.w   d5
00009846  5115            subq.b  #8,(a5)
00009848  4445            neg.w   d5
0000984a  5114            subq.b  #8,(a4)
0000984c  4445            neg.w   d5
0000984e  5115            subq.b  #8,(a5)
00009850  4445            neg.w   d5
00009852  512a 4445       subq.b  #8,4445(a2)
00009856  5129 4445       subq.b  #8,4445(a1)
0000985a  512a 4445       subq.b  #8,4445(a2)
0000985e  5129 4445       subq.b  #8,4445(a1)
00009862  5124            subq.b  #8,-(a4)
00009864  4445            neg.w   d5
00009866  5125            subq.b  #8,-(a5)
00009868  4445            neg.w   d5
0000986a  5124            subq.b  #8,-(a4)
0000986c  4445            neg.w   d5
0000986e  5125            subq.b  #8,-(a5)
00009870  4445            neg.w   d5
00009872  512a 4445       subq.b  #8,4445(a2)
00009876  5129 4445       subq.b  #8,4445(a1)
0000987a  512a 4445       subq.b  #8,4445(a2)
0000987e  5129 4445       subq.b  #8,4445(a1)
00009882  5124            subq.b  #8,-(a4)
00009884  4445            neg.w   d5
00009886  5125            subq.b  #8,-(a5)
00009888  4445            neg.w   d5
0000988a  5124            subq.b  #8,-(a4)
0000988c  4445            neg.w   d5
0000988e  5125            subq.b  #8,-(a5)
00009890  4445            neg.w   d5
00009892  5112            subq.b  #8,(a2)
00009894  4445            neg.w   d5
00009896  5111            subq.b  #8,(a1)
00009898  4445            neg.w   d5
0000989a  5112            subq.b  #8,(a2)
0000989c  4445            neg.w   d5
0000989e  5111            subq.b  #8,(a1)
000098a0  4445            neg.w   d5
000098a2  5114            subq.b  #8,(a4)
000098a4  4445            neg.w   d5
000098a6  5115            subq.b  #8,(a5)
000098a8  4445            neg.w   d5
000098aa  5114            subq.b  #8,(a4)
000098ac  4445            neg.w   d5
000098ae  5115            subq.b  #8,(a5)
000098b0  4445            neg.w   d5
000098b2  5112            subq.b  #8,(a2)
000098b4  4445            neg.w   d5
000098b6  5111            subq.b  #8,(a1)
000098b8  4445            neg.w   d5
000098ba  5112            subq.b  #8,(a2)
000098bc  4445            neg.w   d5
000098be  5111            subq.b  #8,(a1)
000098c0  4445            neg.w   d5
000098c2  5114            subq.b  #8,(a4)
000098c4  4445            neg.w   d5
000098c6  5115            subq.b  #8,(a5)
000098c8  4445            neg.w   d5
000098ca  5114            subq.b  #8,(a4)
000098cc  4445            neg.w   d5
000098ce  5115            subq.b  #8,(a5)
000098d0  4445            neg.w   d5
000098d2  514a            subq.w  #8,a2
000098d4  4445            neg.w   d5
000098d6  5149            subq.w  #8,a1
000098d8  4445            neg.w   d5
000098da  514a            subq.w  #8,a2
000098dc  4445            neg.w   d5
000098de  5149            subq.w  #8,a1
000098e0  4445            neg.w   d5
000098e2  5144            subq.w  #8,d4
000098e4  4445            neg.w   d5
000098e6  5145            subq.w  #8,d5
000098e8  4445            neg.w   d5
000098ea  5144            subq.w  #8,d4
000098ec  4445            neg.w   d5
000098ee  5145            subq.w  #8,d5
000098f0  4445            neg.w   d5
000098f2  514a            subq.w  #8,a2
000098f4  4445            neg.w   d5
000098f6  5149            subq.w  #8,a1
000098f8  4445            neg.w   d5
000098fa  514a            subq.w  #8,a2
000098fc  4445            neg.w   d5
000098fe  5149            subq.w  #8,a1
00009900  4445            neg.w   d5
00009902  5144            subq.w  #8,d4
00009904  4445            neg.w   d5
00009906  5145            subq.w  #8,d5
00009908  4445            neg.w   d5
0000990a  5144            subq.w  #8,d4
0000990c  4445            neg.w   d5
0000990e  5145            subq.w  #8,d5
00009910  4445            neg.w   d5
00009912  5152            subq.w  #8,(a2)
00009914  4445            neg.w   d5
00009916  5151            subq.w  #8,(a1)
00009918  4445            neg.w   d5
0000991a  5152            subq.w  #8,(a2)
0000991c  4445            neg.w   d5
0000991e  5151            subq.w  #8,(a1)
00009920  4445            neg.w   d5
00009922  5154            subq.w  #8,(a4)
00009924  4445            neg.w   d5
00009926  5155            subq.w  #8,(a5)
00009928  4445            neg.w   d5
0000992a  5154            subq.w  #8,(a4)
0000992c  4445            neg.w   d5
0000992e  5155            subq.w  #8,(a5)
00009930  4445            neg.w   d5
00009932  5152            subq.w  #8,(a2)
00009934  4445            neg.w   d5
00009936  5151            subq.w  #8,(a1)
00009938  4445            neg.w   d5
0000993a  5152            subq.w  #8,(a2)
0000993c  4445            neg.w   d5
0000993e  5151            subq.w  #8,(a1)
00009940  4445            neg.w   d5
00009942  5154            subq.w  #8,(a4)
00009944  4445            neg.w   d5
00009946  5155            subq.w  #8,(a5)
00009948  4445            neg.w   d5
0000994a  5154            subq.w  #8,(a4)
0000994c  4445            neg.w   d5
0000994e  5155            subq.w  #8,(a5)
00009950  4445            neg.w   d5
00009952  514a            subq.w  #8,a2
00009954  4445            neg.w   d5
00009956  5149            subq.w  #8,a1
00009958  4445            neg.w   d5
0000995a  514a            subq.w  #8,a2
0000995c  4445            neg.w   d5
0000995e  5149            subq.w  #8,a1
00009960  4445            neg.w   d5
00009962  5144            subq.w  #8,d4
00009964  4445            neg.w   d5
00009966  5145            subq.w  #8,d5
00009968  4445            neg.w   d5
0000996a  5144            subq.w  #8,d4
0000996c  4445            neg.w   d5
0000996e  5145            subq.w  #8,d5
00009970  4445            neg.w   d5
00009972  514a            subq.w  #8,a2
00009974  4445            neg.w   d5
00009976  5149            subq.w  #8,a1
00009978  4445            neg.w   d5
0000997a  514a            subq.w  #8,a2
0000997c  4445            neg.w   d5
0000997e  5149            subq.w  #8,a1
00009980  4445            neg.w   d5
00009982  5144            subq.w  #8,d4
00009984  4445            neg.w   d5
00009986  5145            subq.w  #8,d5
00009988  4445            neg.w   d5
0000998a  5144            subq.w  #8,d4
0000998c  4445            neg.w   d5
0000998e  5145            subq.w  #8,d5
00009990  4445            neg.w   d5
00009992  5152            subq.w  #8,(a2)
00009994  4445            neg.w   d5
00009996  5151            subq.w  #8,(a1)
00009998  4445            neg.w   d5
0000999a  5152            subq.w  #8,(a2)
0000999c  4445            neg.w   d5
0000999e  5151            subq.w  #8,(a1)
000099a0  4445            neg.w   d5
000099a2  5154            subq.w  #8,(a4)
000099a4  4445            neg.w   d5
000099a6  5155            subq.w  #8,(a5)
000099a8  4445            neg.w   d5
000099aa  5154            subq.w  #8,(a4)
000099ac  4445            neg.w   d5
000099ae  5155            subq.w  #8,(a5)
000099b0  4445            neg.w   d5
000099b2  5152            subq.w  #8,(a2)
000099b4  4445            neg.w   d5
000099b6  5151            subq.w  #8,(a1)
000099b8  4445            neg.w   d5
000099ba  5152            subq.w  #8,(a2)
000099bc  4445            neg.w   d5
000099be  5151            subq.w  #8,(a1)
000099c0  4445            neg.w   d5
000099c2  5154            subq.w  #8,(a4)
000099c4  4445            neg.w   d5
000099c6  5155            subq.w  #8,(a5)
000099c8  4445            neg.w   d5
000099ca  5154            subq.w  #8,(a4)
000099cc  4445            neg.w   d5
000099ce  5155            subq.w  #8,(a5)
000099d0  2aa8 aaaa       move.l  -5556(a0),(a5)
000099d4  4489            neg.l   a1
000099d6  4489            neg.l   a1
000099d8  552a aaa9       subq.b  #2,-5557(a2)
000099dc  552a a524       subq.b  #2,-5adc(a2)
000099e0  aaaa            a-line
000099e2  aaaa            a-line
000099e4  aaaa            a-line
000099e6  aaaa            a-line
000099e8  aaaa            a-line
000099ea  aaaa            a-line
000099ec  aaaa            a-line
000099ee  aaaa            a-line
000099f0  aaaa            a-line
000099f2  aaaa            a-line
000099f4  aaaa            a-line
000099f6  aaaa            a-line
000099f8  aaaa            a-line
000099fa  aaaa            a-line
000099fc  aaaa            a-line
000099fe  aaaa            a-line
00009a00  aaaa            a-line
00009a02  aaaa            a-line
00009a04  aaaa            a-line
00009a06  a525            a-line
00009a08  2aaa aaaa       move.l  -5556(a2),(a5)
00009a0c  aaaa            a-line
00009a0e  aa22            a-line
00009a10  a888            a-line
00009a12  aa22            a-line
00009a14  4888 aa22       movem.w d1/d5/a1/a3/a5/sp,a0
00009a18  2888            move.l  a0,(a4)
00009a1a  aa22            a-line
00009a1c  4888 aa22       movem.w d1/d5/a1/a3/a5/sp,a0
00009a20  2888            move.l  a0,(a4)
00009a22  aa22            a-line
00009a24  8888            or.l    a0,d4
00009a26  aa22            a-line
00009a28  a888            a-line
00009a2a  aa22            a-line
00009a2c  8888            or.l    a0,d4
00009a2e  aa22            a-line
00009a30  a888            a-line
00009a32  aa29            a-line
00009a34  4888 aa29       movem.w d0/d3/d5/a1/a3/a5/sp,a0
00009a38  2888            move.l  a0,(a4)
00009a3a  aa29            a-line
00009a3c  4888 aa29       movem.w d0/d3/d5/a1/a3/a5/sp,a0
00009a40  2888            move.l  a0,(a4)
00009a42  aa28            a-line
00009a44  8888            or.l    a0,d4
00009a46  aa28            a-line
00009a48  a888            a-line
00009a4a  aa28            a-line
00009a4c  8888            or.l    a0,d4
00009a4e  aa28            a-line
00009a50  a888            a-line
00009a52  aa29            a-line
00009a54  4888 aa29       movem.w d0/d3/d5/a1/a3/a5/sp,a0
00009a58  2888            move.l  a0,(a4)
00009a5a  aa29            a-line
00009a5c  4888 aa29       movem.w d0/d3/d5/a1/a3/a5/sp,a0
00009a60  2888            move.l  a0,(a4)
00009a62  aa28            a-line
00009a64  8888            or.l    a0,d4
00009a66  aa28            a-line
00009a68  a888            a-line
00009a6a  aa28            a-line
00009a6c  8888            or.l    a0,d4
00009a6e  aa28            a-line
00009a70  a888            a-line
00009a72  aa2a            a-line
00009a74  4888 aa2a       movem.w d1/d3/d5/a1/a3/a5/sp,a0
00009a78  2888            move.l  a0,(a4)
00009a7a  aa2a            a-line
00009a7c  4888 aa2a       movem.w d1/d3/d5/a1/a3/a5/sp,a0
00009a80  2888            move.l  a0,(a4)
00009a82  aa2a            a-line
00009a84  8888            or.l    a0,d4
00009a86  aa2a            a-line
00009a88  a888            a-line
00009a8a  aa2a            a-line
00009a8c  8888            or.l    a0,d4
00009a8e  aa2a            a-line
00009a90  a888            a-line
00009a92  aa2a            a-line
00009a94  4888 aa2a       movem.w d1/d3/d5/a1/a3/a5/sp,a0
00009a98  2888            move.l  a0,(a4)
00009a9a  aa2a            a-line
00009a9c  4888 aa2a       movem.w d1/d3/d5/a1/a3/a5/sp,a0
00009aa0  2888            move.l  a0,(a4)
00009aa2  aa2a            a-line
00009aa4  8888            or.l    a0,d4
00009aa6  aa2a            a-line
00009aa8  a888            a-line
00009aaa  aa2a            a-line
00009aac  8888            or.l    a0,d4
00009aae  aa2a            a-line
00009ab0  a888            a-line
00009ab2  aa29            a-line
00009ab4  4888 aa29       movem.w d0/d3/d5/a1/a3/a5/sp,a0
00009ab8  2888            move.l  a0,(a4)
00009aba  aa29            a-line
00009abc  4888 aa29       movem.w d0/d3/d5/a1/a3/a5/sp,a0
00009ac0  2888            move.l  a0,(a4)
00009ac2  aa28            a-line
00009ac4  8888            or.l    a0,d4
00009ac6  aa28            a-line
00009ac8  a888            a-line
00009aca  aa28            a-line
00009acc  8888            or.l    a0,d4
00009ace  aa28            a-line
00009ad0  a888            a-line
00009ad2  aa29            a-line
00009ad4  4888 aa29       movem.w d0/d3/d5/a1/a3/a5/sp,a0
00009ad8  2888            move.l  a0,(a4)
00009ada  aa29            a-line
00009adc  4888 aa29       movem.w d0/d3/d5/a1/a3/a5/sp,a0
00009ae0  2888            move.l  a0,(a4)
00009ae2  aa28            a-line
00009ae4  8888            or.l    a0,d4
00009ae6  aa28            a-line
00009ae8  a888            a-line
00009aea  aa28            a-line
00009aec  8888            or.l    a0,d4
00009aee  aa28            a-line
00009af0  a888            a-line
00009af2  aa2a            a-line
00009af4  4888 aa2a       movem.w d1/d3/d5/a1/a3/a5/sp,a0
00009af8  2888            move.l  a0,(a4)
00009afa  aa2a            a-line
00009afc  4888 aa2a       movem.w d1/d3/d5/a1/a3/a5/sp,a0
00009b00  2888            move.l  a0,(a4)
00009b02  aa2a            a-line
00009b04  8888            or.l    a0,d4
00009b06  aa2a            a-line
00009b08  a888            a-line
00009b0a  aa2a            a-line
00009b0c  8888            or.l    a0,d4
00009b0e  aa2a            a-line
00009b10  a888            a-line
00009b12  aa2a            a-line
00009b14  4888 aa2a       movem.w d1/d3/d5/a1/a3/a5/sp,a0
00009b18  2888            move.l  a0,(a4)
00009b1a  aa2a            a-line
00009b1c  4888 aa2a       movem.w d1/d3/d5/a1/a3/a5/sp,a0
00009b20  2888            move.l  a0,(a4)
00009b22  aa2a            a-line
00009b24  8888            or.l    a0,d4
00009b26  aa2a            a-line
00009b28  a888            a-line
00009b2a  aa2a            a-line
00009b2c  8888            or.l    a0,d4
00009b2e  aa2a            a-line
00009b30  a555            a-line
00009b32  5555            subq.w  #2,(a5)
00009b34  4891 2891       movem.w d0/d4/d7/a3/a5,(a1)
00009b38  2aa5            move.l  -(a5),(a5)
00009b3a  5555            subq.w  #2,(a5)
00009b3c  2aa5            move.l  -(a5),(a5)
00009b3e  5494            addq.l  #2,(a4)
00009b40  a555            a-line
00009b42  5555            subq.w  #2,(a5)
00009b44  5555            subq.w  #2,(a5)
00009b46  5555            subq.w  #2,(a5)
00009b48  5555            subq.w  #2,(a5)
00009b4a  5555            subq.w  #2,(a5)
00009b4c  5555            subq.w  #2,(a5)
00009b4e  5555            subq.w  #2,(a5)
00009b50  5555            subq.w  #2,(a5)
00009b52  5555            subq.w  #2,(a5)
00009b54  5555            subq.w  #2,(a5)
00009b56  5555            subq.w  #2,(a5)
00009b58  5555            subq.w  #2,(a5)
00009b5a  5555            subq.w  #2,(a5)
00009b5c  5555            subq.w  #2,(a5)
00009b5e  5555            subq.w  #2,(a5)
00009b60  5555            subq.w  #2,(a5)
00009b62  5555            subq.w  #2,(a5)
00009b64  5555            subq.w  #2,(a5)
00009b66  5494            addq.l  #2,(a4)
00009b68  9555            sub.w   d2,(a5)
00009b6a  5555            subq.w  #2,(a5)
00009b6c  5555            subq.w  #2,(a5)
00009b6e  5555            subq.w  #2,(a5)
00009b70  5554            subq.w  #2,(a4)
00009b72  a525            a-line
00009b74  5554            subq.w  #2,(a4)
00009b76  a525            a-line
00009b78  5554            subq.w  #2,(a4)
00009b7a  a525            a-line
00009b7c  2554 a525       move.l  (a4),-5adb(a2)
00009b80  2554 a525       move.l  (a4),-5adb(a2)
00009b84  5554            subq.w  #2,(a4)
00009b86  a525            a-line
00009b88  5554            subq.w  #2,(a4)
00009b8a  a525            a-line
00009b8c  2554 a525       move.l  (a4),-5adb(a2)
00009b90  2554 a524       move.l  (a4),-5adc(a2)
00009b94  9554            sub.w   d2,(a4)
00009b96  a524            a-line
00009b98  9554            sub.w   d2,(a4)
00009b9a  a524            a-line
00009b9c  a554            a-line
00009b9e  a524            a-line
00009ba0  a554            a-line
00009ba2  a524            a-line
00009ba4  9554            sub.w   d2,(a4)
00009ba6  a524            a-line
00009ba8  9554            sub.w   d2,(a4)
00009baa  a524            a-line
00009bac  a554            a-line
00009bae  a524            a-line
00009bb0  a554            a-line
00009bb2  a525            a-line
00009bb4  5554            subq.w  #2,(a4)
00009bb6  a525            a-line
00009bb8  5554            subq.w  #2,(a4)
00009bba  a525            a-line
00009bbc  2554 a525       move.l  (a4),-5adb(a2)
00009bc0  2554 a525       move.l  (a4),-5adb(a2)
00009bc4  5554            subq.w  #2,(a4)
00009bc6  a525            a-line
00009bc8  5554            subq.w  #2,(a4)
00009bca  a525            a-line
00009bcc  2554 a525       move.l  (a4),-5adb(a2)
00009bd0  2554 a524       move.l  (a4),-5adc(a2)
00009bd4  9554            sub.w   d2,(a4)
00009bd6  a524            a-line
00009bd8  9554            sub.w   d2,(a4)
00009bda  a524            a-line
00009bdc  a554            a-line
00009bde  a524            a-line
00009be0  a554            a-line
00009be2  a524            a-line
00009be4  9554            sub.w   d2,(a4)
00009be6  a524            a-line
00009be8  9554            sub.w   d2,(a4)
00009bea  a524            a-line
00009bec  a554            a-line
00009bee  a524            a-line
00009bf0  a554            a-line
00009bf2  a522            a-line
00009bf4  5554            subq.w  #2,(a4)
00009bf6  a522            a-line
00009bf8  5554            subq.w  #2,(a4)
00009bfa  a522            a-line
00009bfc  2554 a522       move.l  (a4),-5ade(a2)
00009c00  2554 a522       move.l  (a4),-5ade(a2)
00009c04  5554            subq.w  #2,(a4)
00009c06  a522            a-line
00009c08  5554            subq.w  #2,(a4)
00009c0a  a522            a-line
00009c0c  2554 a522       move.l  (a4),-5ade(a2)
00009c10  2554 a522       move.l  (a4),-5ade(a2)
00009c14  9554            sub.w   d2,(a4)
00009c16  a522            a-line
00009c18  9554            sub.w   d2,(a4)
00009c1a  a522            a-line
00009c1c  a554            a-line
00009c1e  a522            a-line
00009c20  a554            a-line
00009c22  a522            a-line
00009c24  9554            sub.w   d2,(a4)
00009c26  a522            a-line
00009c28  9554            sub.w   d2,(a4)
00009c2a  a522            a-line
00009c2c  a554            a-line
00009c2e  a522            a-line
00009c30  a554            a-line
00009c32  a522            a-line
00009c34  5554            subq.w  #2,(a4)
00009c36  a522            a-line
00009c38  5554            subq.w  #2,(a4)
00009c3a  a522            a-line
00009c3c  2554 a522       move.l  (a4),-5ade(a2)
00009c40  2554 a522       move.l  (a4),-5ade(a2)
00009c44  5554            subq.w  #2,(a4)
00009c46  a522            a-line
00009c48  5554            subq.w  #2,(a4)
00009c4a  a522            a-line
00009c4c  2554 a522       move.l  (a4),-5ade(a2)
00009c50  2554 a522       move.l  (a4),-5ade(a2)
00009c54  9554            sub.w   d2,(a4)
00009c56  a522            a-line
00009c58  9554            sub.w   d2,(a4)
00009c5a  a522            a-line
00009c5c  a554            a-line
00009c5e  a522            a-line
00009c60  a554            a-line
00009c62  a522            a-line
00009c64  9554            sub.w   d2,(a4)
00009c66  a522            a-line
00009c68  9554            sub.w   d2,(a4)
00009c6a  a522            a-line
00009c6c  a554            a-line
00009c6e  a522            a-line
00009c70  a554            a-line
00009c72  a525            a-line
00009c74  5554            subq.w  #2,(a4)
00009c76  a525            a-line
00009c78  5554            subq.w  #2,(a4)
00009c7a  a525            a-line
00009c7c  2554 a525       move.l  (a4),-5adb(a2)
00009c80  2554 a525       move.l  (a4),-5adb(a2)
00009c84  5554            subq.w  #2,(a4)
00009c86  a525            a-line
00009c88  5554            subq.w  #2,(a4)
00009c8a  a525            a-line
00009c8c  2554 a525       move.l  (a4),-5adb(a2)
00009c90  2554 a524       move.l  (a4),-5adc(a2)
00009c94  9554            sub.w   d2,(a4)
00009c96  a524            a-line
00009c98  9554            sub.w   d2,(a4)
00009c9a  a524            a-line
00009c9c  a554            a-line
00009c9e  a524            a-line
00009ca0  a554            a-line
00009ca2  a524            a-line
00009ca4  9554            sub.w   d2,(a4)
00009ca6  a524            a-line
00009ca8  9554            sub.w   d2,(a4)
00009caa  a524            a-line
00009cac  a554            a-line
00009cae  a524            a-line
00009cb0  a554            a-line
00009cb2  a525            a-line
00009cb4  5554            subq.w  #2,(a4)
00009cb6  a525            a-line
00009cb8  5554            subq.w  #2,(a4)
00009cba  a525            a-line
00009cbc  2554 a525       move.l  (a4),-5adb(a2)
00009cc0  2554 a525       move.l  (a4),-5adb(a2)
00009cc4  5554            subq.w  #2,(a4)
00009cc6  a525            a-line
00009cc8  5554            subq.w  #2,(a4)
00009cca  a525            a-line
00009ccc  2554 a525       move.l  (a4),-5adb(a2)
00009cd0  2554 a524       move.l  (a4),-5adc(a2)
00009cd4  9554            sub.w   d2,(a4)
00009cd6  a524            a-line
00009cd8  9554            sub.w   d2,(a4)
00009cda  a524            a-line
00009cdc  a554            a-line
00009cde  a524            a-line
00009ce0  a554            a-line
00009ce2  a524            a-line
00009ce4  9554            sub.w   d2,(a4)
00009ce6  a524            a-line
00009ce8  9554            sub.w   d2,(a4)
00009cea  a524            a-line
00009cec  a554            a-line
00009cee  a524            a-line
00009cf0  a554            a-line
00009cf2  a522            a-line
00009cf4  5554            subq.w  #2,(a4)
00009cf6  a522            a-line
00009cf8  5554            subq.w  #2,(a4)
00009cfa  a522            a-line
00009cfc  2554 a522       move.l  (a4),-5ade(a2)
00009d00  2554 a522       move.l  (a4),-5ade(a2)
00009d04  5554            subq.w  #2,(a4)
00009d06  a522            a-line
00009d08  5554            subq.w  #2,(a4)
00009d0a  a522            a-line
00009d0c  2554 a522       move.l  (a4),-5ade(a2)
00009d10  2554 a522       move.l  (a4),-5ade(a2)
00009d14  9554            sub.w   d2,(a4)
00009d16  a522            a-line
00009d18  9554            sub.w   d2,(a4)
00009d1a  a522            a-line
00009d1c  a554            a-line
00009d1e  a522            a-line
00009d20  a554            a-line
00009d22  a522            a-line
00009d24  9554            sub.w   d2,(a4)
00009d26  a522            a-line
00009d28  9554            sub.w   d2,(a4)
00009d2a  a522            a-line
00009d2c  a554            a-line
00009d2e  a522            a-line
00009d30  a554            a-line
00009d32  a522            a-line
00009d34  5554            subq.w  #2,(a4)
00009d36  a522            a-line
00009d38  5554            subq.w  #2,(a4)
00009d3a  a522            a-line
00009d3c  2554 a522       move.l  (a4),-5ade(a2)
00009d40  2554 a522       move.l  (a4),-5ade(a2)
00009d44  5554            subq.w  #2,(a4)
00009d46  a522            a-line
00009d48  5554            subq.w  #2,(a4)
00009d4a  a522            a-line
00009d4c  2554 a522       move.l  (a4),-5ade(a2)
00009d50  2554 a522       move.l  (a4),-5ade(a2)
00009d54  9554            sub.w   d2,(a4)
00009d56  a522            a-line
00009d58  9554            sub.w   d2,(a4)
00009d5a  a522            a-line
00009d5c  a554            a-line
00009d5e  a522            a-line
00009d60  a554            a-line
00009d62  a522            a-line
00009d64  9554            sub.w   d2,(a4)
00009d66  a522            a-line
00009d68  9554            sub.w   d2,(a4)
00009d6a  a522            a-line
00009d6c  a554            a-line
00009d6e  a522            a-line
00009d70  a888            a-line
00009d72  aa25            a-line
00009d74  4888 aa25       movem.w d0/d2/d5/a1/a3/a5/sp,a0
00009d78  2888            move.l  a0,(a4)
00009d7a  aa25            a-line
00009d7c  4888 aa25       movem.w d0/d2/d5/a1/a3/a5/sp,a0
00009d80  2888            move.l  a0,(a4)
00009d82  aa24            a-line
00009d84  8888            or.l    a0,d4
00009d86  aa24            a-line
00009d88  a888            a-line
00009d8a  aa24            a-line
00009d8c  8888            or.l    a0,d4
00009d8e  aa24            a-line
00009d90  a888            a-line
00009d92  aa25            a-line
00009d94  4888 aa25       movem.w d0/d2/d5/a1/a3/a5/sp,a0
00009d98  2888            move.l  a0,(a4)
00009d9a  aa25            a-line
00009d9c  4888 aa25       movem.w d0/d2/d5/a1/a3/a5/sp,a0
00009da0  2888            move.l  a0,(a4)
00009da2  aa24            a-line
00009da4  8888            or.l    a0,d4
00009da6  aa24            a-line
00009da8  a888            a-line
00009daa  aa24            a-line
00009dac  8888            or.l    a0,d4
00009dae  aa24            a-line
00009db0  a888            a-line
00009db2  aa22            a-line
00009db4  4888 aa22       movem.w d1/d5/a1/a3/a5/sp,a0
00009db8  2888            move.l  a0,(a4)
00009dba  aa22            a-line
00009dbc  4888 aa22       movem.w d1/d5/a1/a3/a5/sp,a0
00009dc0  2888            move.l  a0,(a4)
00009dc2  aa22            a-line
00009dc4  8888            or.l    a0,d4
00009dc6  aa22            a-line
00009dc8  a888            a-line
00009dca  aa22            a-line
00009dcc  8888            or.l    a0,d4
00009dce  aa22            a-line
00009dd0  a888            a-line
00009dd2  aa22            a-line
00009dd4  4888 aa22       movem.w d1/d5/a1/a3/a5/sp,a0
00009dd8  2888            move.l  a0,(a4)
00009dda  aa22            a-line
00009ddc  4888 aa22       movem.w d1/d5/a1/a3/a5/sp,a0
00009de0  2888            move.l  a0,(a4)
00009de2  aa22            a-line
00009de4  8888            or.l    a0,d4
00009de6  aa22            a-line
00009de8  a888            a-line
00009dea  aa22            a-line
00009dec  8888            or.l    a0,d4
00009dee  aa22            a-line
00009df0  a888            a-line
00009df2  aa25            a-line
00009df4  4888 aa25       movem.w d0/d2/d5/a1/a3/a5/sp,a0
00009df8  2888            move.l  a0,(a4)
00009dfa  aa25            a-line
00009dfc  4888 aa25       movem.w d0/d2/d5/a1/a3/a5/sp,a0
00009e00  2888            move.l  a0,(a4)
00009e02  aa24            a-line
00009e04  8888            or.l    a0,d4
00009e06  aa24            a-line
00009e08  a888            a-line
00009e0a  aa24            a-line
00009e0c  8888            or.l    a0,d4
00009e0e  aa24            a-line
00009e10  a888            a-line
00009e12  aa25            a-line
00009e14  4888 aa25       movem.w d0/d2/d5/a1/a3/a5/sp,a0
00009e18  2888            move.l  a0,(a4)
00009e1a  aa25            a-line
00009e1c  4888 aa25       movem.w d0/d2/d5/a1/a3/a5/sp,a0
00009e20  2888            move.l  a0,(a4)
00009e22  aa24            a-line
00009e24  8888            or.l    a0,d4
00009e26  aa24            a-line
00009e28  a888            a-line
00009e2a  aa24            a-line
00009e2c  8888            or.l    a0,d4
00009e2e  aa24            a-line
00009e30  a888            a-line
00009e32  aa22            a-line
00009e34  4888 aa22       movem.w d1/d5/a1/a3/a5/sp,a0
00009e38  2888            move.l  a0,(a4)
00009e3a  aa22            a-line
00009e3c  4888 aa22       movem.w d1/d5/a1/a3/a5/sp,a0
00009e40  2888            move.l  a0,(a4)
00009e42  aa22            a-line
00009e44  8888            or.l    a0,d4
00009e46  aa22            a-line
00009e48  a888            a-line
00009e4a  aa22            a-line
00009e4c  8888            or.l    a0,d4
00009e4e  aa22            a-line
00009e50  a888            a-line
00009e52  aa22            a-line
00009e54  4888 aa22       movem.w d1/d5/a1/a3/a5/sp,a0
00009e58  2888            move.l  a0,(a4)
00009e5a  aa22            a-line
00009e5c  4888 aa22       movem.w d1/d5/a1/a3/a5/sp,a0
00009e60  2888            move.l  a0,(a4)
00009e62  aa22            a-line
00009e64  8888            or.l    a0,d4
00009e66  aa22            a-line
00009e68  a888            a-line
00009e6a  aa22            a-line
00009e6c  8888            or.l    a0,d4
00009e6e  aa22            a-line
00009e70  a888            a-line
00009e72  aa29            a-line
00009e74  4888 aa29       movem.w d0/d3/d5/a1/a3/a5/sp,a0
00009e78  2888            move.l  a0,(a4)
00009e7a  aa29            a-line
00009e7c  4888 aa29       movem.w d0/d3/d5/a1/a3/a5/sp,a0
00009e80  2888            move.l  a0,(a4)
00009e82  aa28            a-line
00009e84  8888            or.l    a0,d4
00009e86  aa28            a-line
00009e88  a888            a-line
00009e8a  aa28            a-line
00009e8c  8888            or.l    a0,d4
00009e8e  aa28            a-line
00009e90  a888            a-line
00009e92  aa29            a-line
00009e94  4888 aa29       movem.w d0/d3/d5/a1/a3/a5/sp,a0
00009e98  2888            move.l  a0,(a4)
00009e9a  aa29            a-line
00009e9c  4888 aa29       movem.w d0/d3/d5/a1/a3/a5/sp,a0
00009ea0  2888            move.l  a0,(a4)
00009ea2  aa28            a-line
00009ea4  8888            or.l    a0,d4
00009ea6  aa28            a-line
00009ea8  a888            a-line
00009eaa  aa28            a-line
00009eac  8888            or.l    a0,d4
00009eae  aa28            a-line
00009eb0  a888            a-line
00009eb2  aa2a            a-line
00009eb4  4888 aa2a       movem.w d1/d3/d5/a1/a3/a5/sp,a0
00009eb8  2888            move.l  a0,(a4)
00009eba  aa2a            a-line
00009ebc  4888 aa2a       movem.w d1/d3/d5/a1/a3/a5/sp,a0
00009ec0  2888            move.l  a0,(a4)
00009ec2  aa2a            a-line
00009ec4  8888            or.l    a0,d4
00009ec6  aa2a            a-line
00009ec8  a888            a-line
00009eca  aa2a            a-line
00009ecc  8888            or.l    a0,d4
00009ece  aa2a            a-line
00009ed0  a888            a-line
00009ed2  aa2a            a-line
00009ed4  4888 aa2a       movem.w d1/d3/d5/a1/a3/a5/sp,a0
00009ed8  2888            move.l  a0,(a4)
00009eda  aa2a            a-line
00009edc  4888 aa2a       movem.w d1/d3/d5/a1/a3/a5/sp,a0
00009ee0  2888            move.l  a0,(a4)
00009ee2  aa2a            a-line
00009ee4  8888            or.l    a0,d4
00009ee6  aa2a            a-line
00009ee8  a888            a-line
00009eea  aa2a            a-line
00009eec  8888            or.l    a0,d4
00009eee  aa2a            a-line
00009ef0  a888            a-line
00009ef2  aa29            a-line
00009ef4  4888 aa29       movem.w d0/d3/d5/a1/a3/a5/sp,a0
00009ef8  2888            move.l  a0,(a4)
00009efa  aa29            a-line
00009efc  4888 aa29       movem.w d0/d3/d5/a1/a3/a5/sp,a0
00009f00  2888            move.l  a0,(a4)
00009f02  aa28            a-line
00009f04  8888            or.l    a0,d4
00009f06  aa28            a-line
00009f08  a888            a-line
00009f0a  aa28            a-line
00009f0c  8888            or.l    a0,d4
00009f0e  aa28            a-line
00009f10  a888            a-line
00009f12  aa29            a-line
00009f14  4888 aa29       movem.w d0/d3/d5/a1/a3/a5/sp,a0
00009f18  2888            move.l  a0,(a4)
00009f1a  aa29            a-line
00009f1c  4888 aa29       movem.w d0/d3/d5/a1/a3/a5/sp,a0
00009f20  2888            move.l  a0,(a4)
00009f22  aa28            a-line
00009f24  8888            or.l    a0,d4
00009f26  aa28            a-line
00009f28  a888            a-line
00009f2a  aa28            a-line
00009f2c  8888            or.l    a0,d4
00009f2e  aa28            a-line
00009f30  a888            a-line
00009f32  aa2a            a-line
00009f34  4888 aa2a       movem.w d1/d3/d5/a1/a3/a5/sp,a0
00009f38  2888            move.l  a0,(a4)
00009f3a  aa2a            a-line
00009f3c  4888 aa2a       movem.w d1/d3/d5/a1/a3/a5/sp,a0
00009f40  2888            move.l  a0,(a4)
00009f42  aa2a            a-line
00009f44  8888            or.l    a0,d4
00009f46  aa2a            a-line
00009f48  a888            a-line
00009f4a  aa2a            a-line
00009f4c  8888            or.l    a0,d4
00009f4e  aa2a            a-line
00009f50  a888            a-line
00009f52  aa2a            a-line
00009f54  4888 aa2a       movem.w d1/d3/d5/a1/a3/a5/sp,a0
00009f58  2888            move.l  a0,(a4)
00009f5a  aa2a            a-line
00009f5c  4888 aa2a       movem.w d1/d3/d5/a1/a3/a5/sp,a0
00009f60  2888            move.l  a0,(a4)
00009f62  aa2a            a-line
00009f64  8888            or.l    a0,d4
00009f66  aa2a            a-line
00009f68  a888            a-line
00009f6a  aa2a            a-line
00009f6c  8888            or.l    a0,d4
00009f6e  aa2a            a-line
00009f70  a555            a-line
00009f72  5555            subq.w  #2,(a5)
00009f74  4891 2891       movem.w d0/d4/d7/a3/a5,(a1)
00009f78  2aa5            move.l  -(a5),(a5)
00009f7a  5555            subq.w  #2,(a5)
00009f7c  2aa5            move.l  -(a5),(a5)
00009f7e  54a4            addq.l  #2,-(a4)
00009f80  9555            sub.w   d2,(a5)
00009f82  5555            subq.w  #2,(a5)
00009f84  5555            subq.w  #2,(a5)
00009f86  5555            subq.w  #2,(a5)
00009f88  5555            subq.w  #2,(a5)
00009f8a  5555            subq.w  #2,(a5)
00009f8c  5555            subq.w  #2,(a5)
00009f8e  5555            subq.w  #2,(a5)
00009f90  5555            subq.w  #2,(a5)
00009f92  5555            subq.w  #2,(a5)
00009f94  5555            subq.w  #2,(a5)
00009f96  5555            subq.w  #2,(a5)
00009f98  5555            subq.w  #2,(a5)
00009f9a  5555            subq.w  #2,(a5)
00009f9c  5555            subq.w  #2,(a5)
00009f9e  5555            subq.w  #2,(a5)
00009fa0  5555            subq.w  #2,(a5)
00009fa2  5555            subq.w  #2,(a5)
00009fa4  5555            subq.w  #2,(a5)
00009fa6  54a4            addq.l  #2,-(a4)
00009fa8  a555            a-line
00009faa  5555            subq.w  #2,(a5)
00009fac  5555            subq.w  #2,(a5)
00009fae  5555            subq.w  #2,(a5)
00009fb0  5554            subq.w  #2,(a4)
00009fb2  a529            a-line
00009fb4  5554            subq.w  #2,(a4)
00009fb6  a529            a-line
00009fb8  5554            subq.w  #2,(a4)
00009fba  a529            a-line
00009fbc  2554 a529       move.l  (a4),-5ad7(a2)
00009fc0  2554 a529       move.l  (a4),-5ad7(a2)
00009fc4  5554            subq.w  #2,(a4)
00009fc6  a529            a-line
00009fc8  5554            subq.w  #2,(a4)
00009fca  a529            a-line
00009fcc  2554 a529       move.l  (a4),-5ad7(a2)
00009fd0  2554 a528       move.l  (a4),-5ad8(a2)
00009fd4  9554            sub.w   d2,(a4)
00009fd6  a528            a-line
00009fd8  9554            sub.w   d2,(a4)
00009fda  a528            a-line
00009fdc  a554            a-line
00009fde  a528            a-line
00009fe0  a554            a-line
00009fe2  a528            a-line
00009fe4  9554            sub.w   d2,(a4)
00009fe6  a528            a-line
00009fe8  9554            sub.w   d2,(a4)
00009fea  a528            a-line
00009fec  a554            a-line
00009fee  a528            a-line
00009ff0  a554            a-line
00009ff2  a529            a-line
00009ff4  5554            subq.w  #2,(a4)
00009ff6  a529            a-line
00009ff8  5554            subq.w  #2,(a4)
00009ffa  a529            a-line
00009ffc  2554 a529       move.l  (a4),-5ad7(a2)
0000a000  2554 a529       move.l  (a4),-5ad7(a2)
0000a004  5554            subq.w  #2,(a4)
0000a006  a529            a-line
0000a008  5554            subq.w  #2,(a4)
0000a00a  a529            a-line
0000a00c  2554 a529       move.l  (a4),-5ad7(a2)
0000a010  2554 a528       move.l  (a4),-5ad8(a2)
0000a014  9554            sub.w   d2,(a4)
0000a016  a528            a-line
0000a018  9554            sub.w   d2,(a4)
0000a01a  a528            a-line
0000a01c  a554            a-line
0000a01e  a528            a-line
0000a020  a554            a-line
0000a022  a528            a-line
0000a024  9554            sub.w   d2,(a4)
0000a026  a528            a-line
0000a028  9554            sub.w   d2,(a4)
0000a02a  a528            a-line
0000a02c  a554            a-line
0000a02e  a528            a-line
0000a030  a554            a-line
0000a032  a52a            a-line
0000a034  5554            subq.w  #2,(a4)
0000a036  a52a            a-line
0000a038  5554            subq.w  #2,(a4)
0000a03a  a52a            a-line
0000a03c  2554 a52a       move.l  (a4),-5ad6(a2)
0000a040  2554 a52a       move.l  (a4),-5ad6(a2)
0000a044  5554            subq.w  #2,(a4)
0000a046  a52a            a-line
0000a048  5554            subq.w  #2,(a4)
0000a04a  a52a            a-line
0000a04c  2554 a52a       move.l  (a4),-5ad6(a2)
0000a050  2554 a52a       move.l  (a4),-5ad6(a2)
0000a054  9554            sub.w   d2,(a4)
0000a056  a52a            a-line
0000a058  9554            sub.w   d2,(a4)
0000a05a  a52a            a-line
0000a05c  a554            a-line
0000a05e  a52a            a-line
0000a060  a554            a-line
0000a062  a52a            a-line
0000a064  9554            sub.w   d2,(a4)
0000a066  a52a            a-line
0000a068  9554            sub.w   d2,(a4)
0000a06a  a52a            a-line
0000a06c  a554            a-line
0000a06e  a52a            a-line
0000a070  a554            a-line
0000a072  a52a            a-line
0000a074  5554            subq.w  #2,(a4)
0000a076  a52a            a-line
0000a078  5554            subq.w  #2,(a4)
0000a07a  a52a            a-line
0000a07c  2554 a52a       move.l  (a4),-5ad6(a2)
0000a080  2554 a52a       move.l  (a4),-5ad6(a2)
0000a084  5554            subq.w  #2,(a4)
0000a086  a52a            a-line
0000a088  5554            subq.w  #2,(a4)
0000a08a  a52a            a-line
0000a08c  2554 a52a       move.l  (a4),-5ad6(a2)
0000a090  2554 a52a       move.l  (a4),-5ad6(a2)
0000a094  9554            sub.w   d2,(a4)
0000a096  a52a            a-line
0000a098  9554            sub.w   d2,(a4)
0000a09a  a52a            a-line
0000a09c  a554            a-line
0000a09e  a52a            a-line
0000a0a0  a554            a-line
0000a0a2  a52a            a-line
0000a0a4  9554            sub.w   d2,(a4)
0000a0a6  a52a            a-line
0000a0a8  9554            sub.w   d2,(a4)
0000a0aa  a52a            a-line
0000a0ac  a554            a-line
0000a0ae  a52a            a-line
0000a0b0  a554            a-line
0000a0b2  a529            a-line
0000a0b4  5554            subq.w  #2,(a4)
0000a0b6  a529            a-line
0000a0b8  5554            subq.w  #2,(a4)
0000a0ba  a529            a-line
0000a0bc  2554 a529       move.l  (a4),-5ad7(a2)
0000a0c0  2554 a529       move.l  (a4),-5ad7(a2)
0000a0c4  5554            subq.w  #2,(a4)
0000a0c6  a529            a-line
0000a0c8  5554            subq.w  #2,(a4)
0000a0ca  a529            a-line
0000a0cc  2554 a529       move.l  (a4),-5ad7(a2)
0000a0d0  2554 a528       move.l  (a4),-5ad8(a2)
0000a0d4  9554            sub.w   d2,(a4)
0000a0d6  a528            a-line
0000a0d8  9554            sub.w   d2,(a4)
0000a0da  a528            a-line
0000a0dc  a554            a-line
0000a0de  a528            a-line
0000a0e0  a554            a-line
0000a0e2  a528            a-line
0000a0e4  9554            sub.w   d2,(a4)
0000a0e6  a528            a-line
0000a0e8  9554            sub.w   d2,(a4)
0000a0ea  a528            a-line
0000a0ec  a554            a-line
0000a0ee  a528            a-line
0000a0f0  a554            a-line
0000a0f2  a529            a-line
0000a0f4  5554            subq.w  #2,(a4)
0000a0f6  a529            a-line
0000a0f8  5554            subq.w  #2,(a4)
0000a0fa  a529            a-line
0000a0fc  2554 a529       move.l  (a4),-5ad7(a2)
0000a100  2554 a529       move.l  (a4),-5ad7(a2)
0000a104  5554            subq.w  #2,(a4)
0000a106  a529            a-line
0000a108  5554            subq.w  #2,(a4)
0000a10a  a529            a-line
0000a10c  2554 a529       move.l  (a4),-5ad7(a2)
0000a110  2554 a528       move.l  (a4),-5ad8(a2)
0000a114  9554            sub.w   d2,(a4)
0000a116  a528            a-line
0000a118  9554            sub.w   d2,(a4)
0000a11a  a528            a-line
0000a11c  a554            a-line
0000a11e  a528            a-line
0000a120  a554            a-line
0000a122  a528            a-line
0000a124  9554            sub.w   d2,(a4)
0000a126  a528            a-line
0000a128  9554            sub.w   d2,(a4)
0000a12a  a528            a-line
0000a12c  a554            a-line
0000a12e  a528            a-line
0000a130  a554            a-line
0000a132  a52a            a-line
0000a134  5554            subq.w  #2,(a4)
0000a136  a52a            a-line
0000a138  5554            subq.w  #2,(a4)
0000a13a  a52a            a-line
0000a13c  2554 a52a       move.l  (a4),-5ad6(a2)
0000a140  2554 a52a       move.l  (a4),-5ad6(a2)
0000a144  5554            subq.w  #2,(a4)
0000a146  a52a            a-line
0000a148  5554            subq.w  #2,(a4)
0000a14a  a52a            a-line
0000a14c  2554 a52a       move.l  (a4),-5ad6(a2)
0000a150  2554 a52a       move.l  (a4),-5ad6(a2)
0000a154  9554            sub.w   d2,(a4)
0000a156  a52a            a-line
0000a158  9554            sub.w   d2,(a4)
0000a15a  a52a            a-line
0000a15c  a554            a-line
0000a15e  a52a            a-line
0000a160  a554            a-line
0000a162  a52a            a-line
0000a164  9554            sub.w   d2,(a4)
0000a166  a52a            a-line
0000a168  9554            sub.w   d2,(a4)
0000a16a  a52a            a-line
0000a16c  a554            a-line
0000a16e  a52a            a-line
0000a170  a554            a-line
0000a172  a52a            a-line
0000a174  5554            subq.w  #2,(a4)
0000a176  a52a            a-line
0000a178  5554            subq.w  #2,(a4)
0000a17a  a52a            a-line
0000a17c  2554 a52a       move.l  (a4),-5ad6(a2)
0000a180  2554 a52a       move.l  (a4),-5ad6(a2)
0000a184  5554            subq.w  #2,(a4)
0000a186  a52a            a-line
0000a188  5554            subq.w  #2,(a4)
0000a18a  a52a            a-line
0000a18c  2554 a52a       move.l  (a4),-5ad6(a2)
0000a190  2554 a52a       move.l  (a4),-5ad6(a2)
0000a194  9554            sub.w   d2,(a4)
0000a196  a52a            a-line
0000a198  9554            sub.w   d2,(a4)
0000a19a  a52a            a-line
0000a19c  a554            a-line
0000a19e  a52a            a-line
0000a1a0  a554            a-line
0000a1a2  a52a            a-line
0000a1a4  9554            sub.w   d2,(a4)
0000a1a6  a52a            a-line
0000a1a8  9554            sub.w   d2,(a4)
0000a1aa  a52a            a-line
0000a1ac  a554            a-line
0000a1ae  a52a            a-line
0000a1b0  a888            a-line
0000a1b2  aa25            a-line
0000a1b4  4888 aa25       movem.w d0/d2/d5/a1/a3/a5/sp,a0
0000a1b8  2888            move.l  a0,(a4)
0000a1ba  aa25            a-line
0000a1bc  4888 aa25       movem.w d0/d2/d5/a1/a3/a5/sp,a0
0000a1c0  2888            move.l  a0,(a4)
0000a1c2  aa24            a-line
0000a1c4  8888            or.l    a0,d4
0000a1c6  aa24            a-line
0000a1c8  a888            a-line
0000a1ca  aa24            a-line
0000a1cc  8888            or.l    a0,d4
0000a1ce  aa24            a-line
0000a1d0  a888            a-line
0000a1d2  aa25            a-line
0000a1d4  4888 aa25       movem.w d0/d2/d5/a1/a3/a5/sp,a0
0000a1d8  2888            move.l  a0,(a4)
0000a1da  aa25            a-line
0000a1dc  4888 aa25       movem.w d0/d2/d5/a1/a3/a5/sp,a0
0000a1e0  2888            move.l  a0,(a4)
0000a1e2  aa24            a-line
0000a1e4  8888            or.l    a0,d4
0000a1e6  aa24            a-line
0000a1e8  a888            a-line
0000a1ea  aa24            a-line
0000a1ec  8888            or.l    a0,d4
0000a1ee  aa24            a-line
0000a1f0  a888            a-line
0000a1f2  aa22            a-line
0000a1f4  4888 aa22       movem.w d1/d5/a1/a3/a5/sp,a0
0000a1f8  2888            move.l  a0,(a4)
0000a1fa  aa22            a-line
0000a1fc  4888 aa22       movem.w d1/d5/a1/a3/a5/sp,a0
0000a200  2888            move.l  a0,(a4)
0000a202  aa22            a-line
0000a204  8888            or.l    a0,d4
0000a206  aa22            a-line
0000a208  a888            a-line
0000a20a  aa22            a-line
0000a20c  8888            or.l    a0,d4
0000a20e  aa22            a-line
0000a210  a888            a-line
0000a212  aa22            a-line
0000a214  4888 aa22       movem.w d1/d5/a1/a3/a5/sp,a0
0000a218  2888            move.l  a0,(a4)
0000a21a  aa22            a-line
0000a21c  4888 aa22       movem.w d1/d5/a1/a3/a5/sp,a0
0000a220  2888            move.l  a0,(a4)
0000a222  aa22            a-line
0000a224  8888            or.l    a0,d4
0000a226  aa22            a-line
0000a228  a888            a-line
0000a22a  aa22            a-line
0000a22c  8888            or.l    a0,d4
0000a22e  aa22            a-line
0000a230  a888            a-line
0000a232  aa25            a-line
0000a234  4888 aa25       movem.w d0/d2/d5/a1/a3/a5/sp,a0
0000a238  2888            move.l  a0,(a4)
0000a23a  aa25            a-line
0000a23c  4888 aa25       movem.w d0/d2/d5/a1/a3/a5/sp,a0
0000a240  2888            move.l  a0,(a4)
0000a242  aa24            a-line
0000a244  8888            or.l    a0,d4
0000a246  aa24            a-line
0000a248  a888            a-line
0000a24a  aa24            a-line
0000a24c  8888            or.l    a0,d4
0000a24e  aa24            a-line
0000a250  a888            a-line
0000a252  aa25            a-line
0000a254  4888 aa25       movem.w d0/d2/d5/a1/a3/a5/sp,a0
0000a258  2888            move.l  a0,(a4)
0000a25a  aa25            a-line
0000a25c  4888 aa25       movem.w d0/d2/d5/a1/a3/a5/sp,a0
0000a260  2888            move.l  a0,(a4)
0000a262  aa24            a-line
0000a264  8888            or.l    a0,d4
0000a266  aa24            a-line
0000a268  a888            a-line
0000a26a  aa24            a-line
0000a26c  8888            or.l    a0,d4
0000a26e  aa24            a-line
0000a270  a888            a-line
0000a272  aa22            a-line
0000a274  4888 aa22       movem.w d1/d5/a1/a3/a5/sp,a0
0000a278  2888            move.l  a0,(a4)
0000a27a  aa22            a-line
0000a27c  4888 aa22       movem.w d1/d5/a1/a3/a5/sp,a0
0000a280  2888            move.l  a0,(a4)
0000a282  aa22            a-line
0000a284  8888            or.l    a0,d4
0000a286  aa22            a-line
0000a288  a888            a-line
0000a28a  aa22            a-line
0000a28c  8888            or.l    a0,d4
0000a28e  aa22            a-line
0000a290  a888            a-line
0000a292  aa22            a-line
0000a294  4888 aa22       movem.w d1/d5/a1/a3/a5/sp,a0
0000a298  2888            move.l  a0,(a4)
0000a29a  aa22            a-line
0000a29c  4888 aa22       movem.w d1/d5/a1/a3/a5/sp,a0
0000a2a0  2888            move.l  a0,(a4)
0000a2a2  aa22            a-line
0000a2a4  8888            or.l    a0,d4
0000a2a6  aa22            a-line
0000a2a8  a888            a-line
0000a2aa  aa22            a-line
0000a2ac  8888            or.l    a0,d4
0000a2ae  aa22            a-line
0000a2b0  a888            a-line
0000a2b2  aa29            a-line
0000a2b4  4888 aa29       movem.w d0/d3/d5/a1/a3/a5/sp,a0
0000a2b8  2888            move.l  a0,(a4)
0000a2ba  aa29            a-line
0000a2bc  4888 aa29       movem.w d0/d3/d5/a1/a3/a5/sp,a0
0000a2c0  2888            move.l  a0,(a4)
0000a2c2  aa28            a-line
0000a2c4  8888            or.l    a0,d4
0000a2c6  aa28            a-line
0000a2c8  a888            a-line
0000a2ca  aa28            a-line
0000a2cc  8888            or.l    a0,d4
0000a2ce  aa28            a-line
0000a2d0  a888            a-line
0000a2d2  aa29            a-line
0000a2d4  4888 aa29       movem.w d0/d3/d5/a1/a3/a5/sp,a0
0000a2d8  2888            move.l  a0,(a4)
0000a2da  aa29            a-line
0000a2dc  4888 aa29       movem.w d0/d3/d5/a1/a3/a5/sp,a0
0000a2e0  2888            move.l  a0,(a4)
0000a2e2  aa28            a-line
0000a2e4  8888            or.l    a0,d4
0000a2e6  aa28            a-line
0000a2e8  a888            a-line
0000a2ea  aa28            a-line
0000a2ec  8888            or.l    a0,d4
0000a2ee  aa28            a-line
0000a2f0  a888            a-line
0000a2f2  aa2a            a-line
0000a2f4  4888 aa2a       movem.w d1/d3/d5/a1/a3/a5/sp,a0
0000a2f8  2888            move.l  a0,(a4)
0000a2fa  aa2a            a-line
0000a2fc  4888 aa2a       movem.w d1/d3/d5/a1/a3/a5/sp,a0
0000a300  2888            move.l  a0,(a4)
0000a302  aa2a            a-line
0000a304  8888            or.l    a0,d4
0000a306  aa2a            a-line
0000a308  a888            a-line
0000a30a  aa2a            a-line
0000a30c  8888            or.l    a0,d4
0000a30e  aa2a            a-line
0000a310  a888            a-line
0000a312  aa2a            a-line
0000a314  4888 aa2a       movem.w d1/d3/d5/a1/a3/a5/sp,a0
0000a318  2888            move.l  a0,(a4)
0000a31a  aa2a            a-line
0000a31c  4888 aa2a       movem.w d1/d3/d5/a1/a3/a5/sp,a0
0000a320  2888            move.l  a0,(a4)
0000a322  aa2a            a-line
0000a324  8888            or.l    a0,d4
0000a326  aa2a            a-line
0000a328  a888            a-line
0000a32a  aa2a            a-line
0000a32c  8888            or.l    a0,d4
0000a32e  aa2a            a-line
0000a330  a888            a-line
0000a332  aa29            a-line
0000a334  4888 aa29       movem.w d0/d3/d5/a1/a3/a5/sp,a0
0000a338  2888            move.l  a0,(a4)
0000a33a  aa29            a-line
0000a33c  4888 aa29       movem.w d0/d3/d5/a1/a3/a5/sp,a0
0000a340  2888            move.l  a0,(a4)
0000a342  aa28            a-line
0000a344  8888            or.l    a0,d4
0000a346  aa28            a-line
0000a348  a888            a-line
0000a34a  aa28            a-line
0000a34c  8888            or.l    a0,d4
0000a34e  aa28            a-line
0000a350  a888            a-line
0000a352  aa29            a-line
0000a354  4888 aa29       movem.w d0/d3/d5/a1/a3/a5/sp,a0
0000a358  2888            move.l  a0,(a4)
0000a35a  aa29            a-line
0000a35c  4888 aa29       movem.w d0/d3/d5/a1/a3/a5/sp,a0
0000a360  2888            move.l  a0,(a4)
0000a362  aa28            a-line
0000a364  8888            or.l    a0,d4
0000a366  aa28            a-line
0000a368  a888            a-line
0000a36a  aa28            a-line
0000a36c  8888            or.l    a0,d4
0000a36e  aa28            a-line
0000a370  a888            a-line
0000a372  aa2a            a-line
0000a374  4888 aa2a       movem.w d1/d3/d5/a1/a3/a5/sp,a0
0000a378  2888            move.l  a0,(a4)
0000a37a  aa2a            a-line
0000a37c  4888 aa2a       movem.w d1/d3/d5/a1/a3/a5/sp,a0
0000a380  2888            move.l  a0,(a4)
0000a382  aa2a            a-line
0000a384  8888            or.l    a0,d4
0000a386  aa2a            a-line
0000a388  a888            a-line
0000a38a  aa2a            a-line
0000a38c  8888            or.l    a0,d4
0000a38e  aa2a            a-line
0000a390  a888            a-line
0000a392  aa2a            a-line
0000a394  4888 aa2a       movem.w d1/d3/d5/a1/a3/a5/sp,a0
0000a398  2888            move.l  a0,(a4)
0000a39a  aa2a            a-line
0000a39c  4888 aa2a       movem.w d1/d3/d5/a1/a3/a5/sp,a0
0000a3a0  2888            move.l  a0,(a4)
0000a3a2  aa2a            a-line
0000a3a4  8888            or.l    a0,d4
0000a3a6  aa2a            a-line
0000a3a8  a888            a-line
0000a3aa  aa2a            a-line
0000a3ac  8888            or.l    a0,d4
0000a3ae  aa2a            a-line
0000a3b0  a555            a-line
0000a3b2  5555            subq.w  #2,(a5)
0000a3b4  4891 2891       movem.w d0/d4/d7/a3/a5,(a1)
0000a3b8  2aa5            move.l  -(a5),(a5)
0000a3ba  5525            subq.b  #2,-(a5)
0000a3bc  4aa5            tst.l   -(a5)
0000a3be  5494            addq.l  #2,(a4)
0000a3c0  a555            a-line
0000a3c2  5555            subq.w  #2,(a5)
0000a3c4  5555            subq.w  #2,(a5)
0000a3c6  5555            subq.w  #2,(a5)
0000a3c8  5555            subq.w  #2,(a5)
0000a3ca  5555            subq.w  #2,(a5)
0000a3cc  5555            subq.w  #2,(a5)
0000a3ce  5555            subq.w  #2,(a5)
0000a3d0  5555            subq.w  #2,(a5)
0000a3d2  5555            subq.w  #2,(a5)
0000a3d4  5555            subq.w  #2,(a5)
0000a3d6  5555            subq.w  #2,(a5)
0000a3d8  5555            subq.w  #2,(a5)
0000a3da  5555            subq.w  #2,(a5)
0000a3dc  5555            subq.w  #2,(a5)
0000a3de  5555            subq.w  #2,(a5)
0000a3e0  5555            subq.w  #2,(a5)
0000a3e2  5555            subq.w  #2,(a5)
0000a3e4  5555            subq.w  #2,(a5)
0000a3e6  54a4            addq.l  #2,-(a4)
0000a3e8  a555            a-line
0000a3ea  5555            subq.w  #2,(a5)
0000a3ec  5555            subq.w  #2,(a5)
0000a3ee  5555            subq.w  #2,(a5)
0000a3f0  5554            subq.w  #2,(a4)
0000a3f2  a525            a-line
0000a3f4  5554            subq.w  #2,(a4)
0000a3f6  a525            a-line
0000a3f8  5554            subq.w  #2,(a4)
0000a3fa  a525            a-line
0000a3fc  2554 a525       move.l  (a4),-5adb(a2)
0000a400  2554 a525       move.l  (a4),-5adb(a2)
0000a404  5554            subq.w  #2,(a4)
0000a406  a525            a-line
0000a408  5554            subq.w  #2,(a4)
0000a40a  a525            a-line
0000a40c  2554 a525       move.l  (a4),-5adb(a2)
0000a410  2554 a524       move.l  (a4),-5adc(a2)
0000a414  9554            sub.w   d2,(a4)
0000a416  a524            a-line
0000a418  9554            sub.w   d2,(a4)
0000a41a  a524            a-line
0000a41c  a554            a-line
0000a41e  a524            a-line
0000a420  a554            a-line
0000a422  a524            a-line
0000a424  9554            sub.w   d2,(a4)
0000a426  a524            a-line
0000a428  9554            sub.w   d2,(a4)
0000a42a  a524            a-line
0000a42c  a554            a-line
0000a42e  a524            a-line
0000a430  a554            a-line
0000a432  a525            a-line
0000a434  5554            subq.w  #2,(a4)
0000a436  a525            a-line
0000a438  5554            subq.w  #2,(a4)
0000a43a  a525            a-line
0000a43c  2554 a525       move.l  (a4),-5adb(a2)
0000a440  2554 a525       move.l  (a4),-5adb(a2)
0000a444  5554            subq.w  #2,(a4)
0000a446  a525            a-line
0000a448  5554            subq.w  #2,(a4)
0000a44a  a525            a-line
0000a44c  2554 a525       move.l  (a4),-5adb(a2)
0000a450  2554 a524       move.l  (a4),-5adc(a2)
0000a454  9554            sub.w   d2,(a4)
0000a456  a524            a-line
0000a458  9554            sub.w   d2,(a4)
0000a45a  a524            a-line
0000a45c  a554            a-line
0000a45e  a524            a-line
0000a460  a554            a-line
0000a462  a524            a-line
0000a464  9554            sub.w   d2,(a4)
0000a466  a524            a-line
0000a468  9554            sub.w   d2,(a4)
0000a46a  a524            a-line
0000a46c  a554            a-line
0000a46e  a524            a-line
0000a470  a554            a-line
0000a472  a522            a-line
0000a474  5554            subq.w  #2,(a4)
0000a476  a522            a-line
0000a478  5554            subq.w  #2,(a4)
0000a47a  a522            a-line
0000a47c  2554 a522       move.l  (a4),-5ade(a2)
0000a480  2554 a522       move.l  (a4),-5ade(a2)
0000a484  5554            subq.w  #2,(a4)
0000a486  a522            a-line
0000a488  5554            subq.w  #2,(a4)
0000a48a  a522            a-line
0000a48c  2554 a522       move.l  (a4),-5ade(a2)
0000a490  aaaa            a-line
0000a492  aaaa            a-line
0000a494  0000 0000       ori.b   #0,d0
0000a498  .... ....       [1 more]
-------------------------------
0000a49c  0007 4368       ori.b   #68,d7
0000a4a0  0000 0000       ori.b   #0,d0
0000a4a4  .... ....       [120514 more]
-------------------------------
0007ffac  00fc            
0007ffae  1ed0            move.b  (a0),(sp)+
0007ffb0  00fe            
0007ffb2  5a54            addq.w  #5,(a4)
0007ffb4  00fe            
0007ffb6  5894            addq.l  #4,(a4)
0007ffb8  00fc            
0007ffba  1ed0            move.b  (a0),(sp)+
0007ffbc  0000 0000       ori.b   #0,d0
0007ffc0  00fc            
0007ffc2  00fc            
0007ffc4  1ed0            move.b  (a0),(sp)+
0007ffc6  0000 0000       ori.b   #0,d0
0007ffca  00fc            
0007ffcc  003d            move.b  (a2)+,???
0007ffce  00fe            
0007ffd0  a386            a-line
0007ffd2  0000 221e       ori.b   #1e,d0
0007ffd6  00fe            
0007ffd8  a9c2            a-line
0007ffda  00fc            
0007ffdc  6e76            bgt.b   80054
0007ffde  0000 0652       ori.b   #52,d0
0007ffe2  0000 0000       ori.b   #0,d0
0007ffe6  .... ....       [1 more]
-------------------------------
0007ffea  0000 080c       ori.b   #c,d0
0007ffee  0000 621e       ori.b   #1e,d0
0007fff2  0000 63f0       ori.b   #f0,d0
0007fff6  0000 0640       ori.b   #40,d0
0007fffa  0000 00fc       ori.b   #fc,d0
0007fffe  08f4 0000       bset.b  
